	.file	"keygen.c"
	.text
	.p2align 4
	.type	modp_R2, @function
modp_R2:
.LFB5528:
	.cfi_startproc
	leal	(%rdi,%rdi), %eax
	movl	%esi, %edx
	movl	%edi, %ecx
	negl	%eax
	subl	%edi, %eax
	movl	%eax, %esi
	sarl	$31, %esi
	andl	%edi, %esi
	leal	(%rax,%rsi), %edi
	movq	%rdx, %rax
	movl	%ecx, %esi
	imulq	%rdi, %rdi
	imulq	%rdi, %rax
	andl	$2147483647, %eax
	imulq	%rsi, %rax
	addq	%rdi, %rax
	shrq	$31, %rax
	subl	%ecx, %eax
	movl	%eax, %edi
	sarl	$31, %edi
	andl	%ecx, %edi
	addl	%eax, %edi
	movq	%rdx, %rax
	movl	%edi, %edi
	imulq	%rdi, %rdi
	imulq	%rdi, %rax
	andl	$2147483647, %eax
	imulq	%rsi, %rax
	addq	%rdi, %rax
	shrq	$31, %rax
	subl	%ecx, %eax
	movl	%eax, %edi
	sarl	$31, %edi
	andl	%ecx, %edi
	addl	%eax, %edi
	movq	%rdx, %rax
	movl	%edi, %edi
	imulq	%rdi, %rdi
	imulq	%rdi, %rax
	andl	$2147483647, %eax
	imulq	%rsi, %rax
	addq	%rdi, %rax
	shrq	$31, %rax
	subl	%ecx, %eax
	movl	%eax, %edi
	sarl	$31, %edi
	andl	%ecx, %edi
	addl	%eax, %edi
	movq	%rdx, %rax
	movl	%edi, %edi
	imulq	%rdi, %rdi
	imulq	%rdi, %rax
	andl	$2147483647, %eax
	imulq	%rsi, %rax
	addq	%rdi, %rax
	shrq	$31, %rax
	subl	%ecx, %eax
	movl	%eax, %edi
	sarl	$31, %edi
	andl	%ecx, %edi
	addl	%edi, %eax
	movl	%eax, %eax
	imulq	%rax, %rax
	imulq	%rax, %rdx
	andl	$2147483647, %edx
	imulq	%rsi, %rdx
	addq	%rax, %rdx
	shrq	$31, %rdx
	subl	%ecx, %edx
	movl	%edx, %eax
	sarl	$31, %eax
	andl	%ecx, %eax
	addl	%eax, %edx
	movl	%edx, %eax
	andl	$1, %eax
	negl	%eax
	andl	%ecx, %eax
	addl	%edx, %eax
	shrl	%eax
	ret
	.cfi_endproc
.LFE5528:
	.size	modp_R2, .-modp_R2
	.p2align 4
	.type	modp_mkgm2, @function
modp_mkgm2:
.LFB5531:
	.cfi_startproc
	pushq	%r15
	.cfi_def_cfa_offset 16
	.cfi_offset 15, -16
	movq	%rdi, %r10
	movq	%rsi, %r11
	movl	%r8d, %edi
	pushq	%r14
	.cfi_def_cfa_offset 24
	.cfi_offset 14, -24
	movl	%r9d, %esi
	movl	%r8d, %r14d
	pushq	%r13
	.cfi_def_cfa_offset 32
	.cfi_offset 13, -32
	movl	%r9d, %r13d
	pushq	%r12
	.cfi_def_cfa_offset 40
	.cfi_offset 12, -40
	movl	$1, %r12d
	movq	%r13, %r9
	pushq	%rbp
	.cfi_def_cfa_offset 48
	.cfi_offset 6, -48
	movl	%ecx, %ebp
	movl	%edx, %ecx
	pushq	%rbx
	.cfi_def_cfa_offset 56
	.cfi_offset 3, -56
	salq	%cl, %r12
	movl	%edx, %ebx
	subq	$8, %rsp
	.cfi_def_cfa_offset 64
	call	modp_R2
	movl	%eax, %ecx
	movl	%ebp, %eax
	imulq	%rcx, %rax
	movq	%rcx, (%rsp)
	imulq	%rax, %r9
	andl	$2147483647, %r9d
	imulq	%r14, %r9
	addq	%rax, %r9
	shrq	$31, %r9
	subl	%r8d, %r9d
	movl	%r9d, %eax
	sarl	$31, %eax
	andl	%r8d, %eax
	addl	%eax, %r9d
	cmpl	$9, %ebx
	ja	.L4
	imulq	%r9, %r9
	movq	%r13, %rax
	imulq	%r9, %rax
	andl	$2147483647, %eax
	imulq	%r14, %rax
	addq	%r9, %rax
	shrq	$31, %rax
	subl	%r8d, %eax
	movl	%eax, %r9d
	sarl	$31, %r9d
	andl	%r8d, %r9d
	addl	%eax, %r9d
	cmpl	$9, %ebx
	je	.L4
	imulq	%r9, %r9
	movq	%r13, %rax
	imulq	%r9, %rax
	andl	$2147483647, %eax
	imulq	%r14, %rax
	addq	%r9, %rax
	shrq	$31, %rax
	subl	%r8d, %eax
	movl	%eax, %r9d
	sarl	$31, %r9d
	andl	%r8d, %r9d
	addl	%eax, %r9d
	cmpl	$8, %ebx
	je	.L4
	imulq	%r9, %r9
	movq	%r13, %rax
	imulq	%r9, %rax
	andl	$2147483647, %eax
	imulq	%r14, %rax
	addq	%r9, %rax
	shrq	$31, %rax
	subl	%r8d, %eax
	movl	%eax, %r9d
	sarl	$31, %r9d
	andl	%r8d, %r9d
	addl	%eax, %r9d
	cmpl	$7, %ebx
	je	.L4
	imulq	%r9, %r9
	movq	%r13, %rax
	imulq	%r9, %rax
	andl	$2147483647, %eax
	imulq	%r14, %rax
	addq	%r9, %rax
	shrq	$31, %rax
	subl	%r8d, %eax
	movl	%eax, %r9d
	sarl	$31, %r9d
	andl	%r8d, %r9d
	addl	%eax, %r9d
	cmpl	$6, %ebx
	je	.L4
	imulq	%r9, %r9
	movq	%r13, %rax
	imulq	%r9, %rax
	andl	$2147483647, %eax
	imulq	%r14, %rax
	addq	%r9, %rax
	shrq	$31, %rax
	subl	%r8d, %eax
	movl	%eax, %r9d
	sarl	$31, %r9d
	andl	%r8d, %r9d
	addl	%eax, %r9d
	cmpl	$5, %ebx
	je	.L4
	imulq	%r9, %r9
	movq	%r13, %rax
	imulq	%r9, %rax
	andl	$2147483647, %eax
	imulq	%r14, %rax
	addq	%r9, %rax
	shrq	$31, %rax
	subl	%r8d, %eax
	movl	%eax, %r9d
	sarl	$31, %r9d
	andl	%r8d, %r9d
	addl	%eax, %r9d
	cmpl	$4, %ebx
	je	.L4
	imulq	%r9, %r9
	movq	%r13, %rax
	imulq	%r9, %rax
	andl	$2147483647, %eax
	imulq	%r14, %rax
	addq	%r9, %rax
	shrq	$31, %rax
	subl	%r8d, %eax
	movl	%eax, %r9d
	sarl	$31, %r9d
	andl	%r8d, %r9d
	addl	%eax, %r9d
	cmpl	$3, %ebx
	je	.L4
	imulq	%r9, %r9
	movq	%r13, %rax
	leal	8(%rbx), %edx
	imulq	%r9, %rax
	andl	$2147483647, %eax
	imulq	%r14, %rax
	addq	%r9, %rax
	shrq	$31, %rax
	subl	%r8d, %eax
	movl	%eax, %r9d
	sarl	$31, %r9d
	andl	%r8d, %r9d
	addl	%eax, %r9d
	cmpl	$2, %ebx
	je	.L4
	imulq	%r9, %r9
	movq	%r13, %rax
	imulq	%r9, %rax
	andl	$2147483647, %eax
	imulq	%r14, %rax
	addq	%r9, %rax
	shrq	$31, %rax
	subl	%r8d, %eax
	movl	%eax, %r9d
	sarl	$31, %r9d
	andl	%r8d, %r9d
	addl	%eax, %r9d
	cmpl	$8, %edx
	jne	.L4
	imulq	%r9, %r9
	movq	%r9, %rax
	imulq	%r13, %rax
	andl	$2147483647, %eax
	imulq	%r14, %rax
	addq	%r9, %rax
	shrq	$31, %rax
	subl	%r8d, %eax
	movl	%eax, %r9d
	sarl	$31, %r9d
	andl	%r8d, %r9d
	addl	%eax, %r9d
.L4:
	movl	$-2147483648, %ebp
	leal	-2(%r8), %r15d
	movl	$30, %ecx
	subl	%r8d, %ebp
	movl	%ebp, %edx
	.p2align 4,,10
	.p2align 3
.L6:
	imulq	%rdx, %rdx
	movq	%r13, %rax
	movl	%r15d, %edi
	shrl	%cl, %edi
	andl	$1, %edi
	imulq	%rdx, %rax
	negl	%edi
	andl	$2147483647, %eax
	imulq	%r14, %rax
	addq	%rdx, %rax
	shrq	$31, %rax
	subl	%r8d, %eax
	cltd
	andl	%r8d, %edx
	leal	(%rax,%rdx), %esi
	movq	%r13, %rdx
	movq	%rsi, %rax
	imulq	%r9, %rsi
	imulq	%rsi, %rdx
	andl	$2147483647, %edx
	imulq	%r14, %rdx
	addq	%rsi, %rdx
	shrq	$31, %rdx
	subl	%r8d, %edx
	movl	%edx, %esi
	sarl	$31, %esi
	andl	%r8d, %esi
	addl	%esi, %edx
	xorl	%eax, %edx
	andl	%edi, %edx
	xorl	%eax, %edx
	subl	$1, %ecx
	jnb	.L6
	movl	%edx, %esi
	movq	%r13, %rax
	movl	$10, %ecx
	imulq	%rsi, %rax
	subl	%ebx, %ecx
	leaq	REV10(%rip), %rdi
	xorl	%ebx, %ebx
	andl	$2147483647, %eax
	imulq	%r14, %rax
	addq	%rsi, %rax
	shrq	$31, %rax
	subl	%r8d, %eax
	cltd
	andl	%r8d, %edx
	addl	%eax, %edx
	movq	%r13, %rax
	movl	%edx, %edx
	imulq	(%rsp), %rdx
	imulq	%rdx, %rax
	andl	$2147483647, %eax
	imulq	%r14, %rax
	addq	%rdx, %rax
	shrq	$31, %rax
	subl	%r8d, %eax
	cltd
	andl	%r8d, %edx
	leal	(%rax,%rdx), %esi
	movl	%ebp, %eax
	xorl	%edx, %edx
	jmp	.L8
	.p2align 4,,10
	.p2align 3
.L35:
	movq	%rdx, %rbx
	salq	%cl, %rbx
	movzwl	(%rdi,%rbx,2), %ebx
.L8:
	movl	%ebp, (%r10,%rbx,4)
	imulq	%r9, %rbp
	addq	$1, %rdx
	movl	%eax, (%r11,%rbx,4)
	movq	%r13, %rbx
	imulq	%rsi, %rax
	imulq	%rbp, %rbx
	andl	$2147483647, %ebx
	imulq	%r14, %rbx
	addq	%rbp, %rbx
	shrq	$31, %rbx
	subl	%r8d, %ebx
	movl	%ebx, %ebp
	sarl	$31, %ebp
	andl	%r8d, %ebp
	addl	%ebx, %ebp
	movq	%rax, %rbx
	movq	%r13, %rax
	imulq	%rbx, %rax
	andl	$2147483647, %eax
	imulq	%r14, %rax
	addq	%rbx, %rax
	shrq	$31, %rax
	subl	%r8d, %eax
	movl	%eax, %ebx
	sarl	$31, %ebx
	andl	%r8d, %ebx
	addl	%ebx, %eax
	cmpq	%rdx, %r12
	jne	.L35
	addq	$8, %rsp
	.cfi_def_cfa_offset 56
	popq	%rbx
	.cfi_def_cfa_offset 48
	popq	%rbp
	.cfi_def_cfa_offset 40
	popq	%r12
	.cfi_def_cfa_offset 32
	popq	%r13
	.cfi_def_cfa_offset 24
	popq	%r14
	.cfi_def_cfa_offset 16
	popq	%r15
	.cfi_def_cfa_offset 8
	ret
	.cfi_endproc
.LFE5531:
	.size	modp_mkgm2, .-modp_mkgm2
	.p2align 4
	.type	poly_big_to_fp, @function
poly_big_to_fp:
.LFB5550:
	.cfi_startproc
	movq	%rcx, %r10
	movq	%rdi, %r9
	movl	%r8d, %ecx
	testq	%rdx, %rdx
	je	.L67
	pushq	%rbp
	.cfi_def_cfa_offset 16
	.cfi_offset 6, -16
	movsd	.LC1(%rip), %xmm3
	movq	%rdx, %rdi
	salq	$2, %r10
	movl	$8, %r8d
	pushq	%rbx
	.cfi_def_cfa_offset 24
	.cfi_offset 3, -24
	movsd	.LC2(%rip), %xmm4
	leaq	0(,%rdx,4), %r11
	salq	%cl, %r8
	movsd	.LC3(%rip), %xmm5
	pxor	%xmm2, %xmm2
	movsd	.LC4(%rip), %xmm6
	movsd	.LC5(%rip), %xmm7
	addq	%r9, %r8
	movsd	.LC6(%rip), %xmm8
	movsd	.LC7(%rip), %xmm9
	movsd	.LC8(%rip), %xmm10
	movsd	.LC9(%rip), %xmm11
	.p2align 4,,10
	.p2align 3
.L39:
	movl	-4(%rsi,%r11), %eax
	movl	(%rsi), %edx
	pxor	%xmm0, %xmm0
	shrl	$30, %eax
	negl	%eax
	movl	%eax, %ecx
	movl	%eax, %ebx
	shrl	%ecx
	andl	$1, %ebx
	xorl	%ecx, %edx
	addl	%ebx, %edx
	movl	%edx, %ebp
	movl	%edx, %ebx
	addl	%edx, %edx
	andl	$2147483647, %ebx
	andl	%eax, %edx
	shrl	$31, %ebp
	subl	%edx, %ebx
	cvtsi2sdl	%ebx, %xmm0
	addsd	%xmm2, %xmm0
	cmpq	$1, %rdi
	je	.L38
	movl	4(%rsi), %edx
	pxor	%xmm1, %xmm1
	xorl	%ecx, %edx
	addl	%ebp, %edx
	movl	%edx, %ebp
	movl	%edx, %ebx
	addl	%edx, %edx
	andl	$2147483647, %ebx
	andl	%eax, %edx
	shrl	$31, %ebp
	subl	%edx, %ebx
	cvtsi2sdl	%ebx, %xmm1
	mulsd	%xmm3, %xmm1
	addsd	%xmm1, %xmm0
	cmpq	$2, %rdi
	je	.L38
	movl	8(%rsi), %edx
	pxor	%xmm1, %xmm1
	xorl	%ecx, %edx
	addl	%ebp, %edx
	movl	%edx, %ebp
	movl	%edx, %ebx
	addl	%edx, %edx
	andl	$2147483647, %ebx
	andl	%eax, %edx
	shrl	$31, %ebp
	subl	%edx, %ebx
	cvtsi2sdl	%ebx, %xmm1
	mulsd	%xmm4, %xmm1
	addsd	%xmm1, %xmm0
	cmpq	$3, %rdi
	je	.L38
	movl	12(%rsi), %edx
	pxor	%xmm1, %xmm1
	xorl	%ecx, %edx
	addl	%ebp, %edx
	movl	%edx, %ebp
	movl	%edx, %ebx
	addl	%edx, %edx
	andl	$2147483647, %ebx
	andl	%eax, %edx
	shrl	$31, %ebp
	subl	%edx, %ebx
	cvtsi2sdl	%ebx, %xmm1
	mulsd	%xmm5, %xmm1
	addsd	%xmm1, %xmm0
	cmpq	$4, %rdi
	je	.L38
	movl	16(%rsi), %edx
	pxor	%xmm1, %xmm1
	xorl	%ecx, %edx
	addl	%ebp, %edx
	movl	%edx, %ebp
	movl	%edx, %ebx
	addl	%edx, %edx
	andl	$2147483647, %ebx
	andl	%eax, %edx
	shrl	$31, %ebp
	subl	%edx, %ebx
	cvtsi2sdl	%ebx, %xmm1
	mulsd	%xmm6, %xmm1
	addsd	%xmm1, %xmm0
	cmpq	$5, %rdi
	je	.L38
	movl	20(%rsi), %edx
	pxor	%xmm1, %xmm1
	xorl	%ecx, %edx
	addl	%ebp, %edx
	movl	%edx, %ebp
	movl	%edx, %ebx
	addl	%edx, %edx
	andl	$2147483647, %ebx
	andl	%eax, %edx
	shrl	$31, %ebp
	subl	%edx, %ebx
	cvtsi2sdl	%ebx, %xmm1
	mulsd	%xmm7, %xmm1
	addsd	%xmm1, %xmm0
	cmpq	$6, %rdi
	je	.L38
	movl	24(%rsi), %edx
	pxor	%xmm1, %xmm1
	xorl	%ecx, %edx
	addl	%ebp, %edx
	movl	%edx, %ebp
	movl	%edx, %ebx
	addl	%edx, %edx
	andl	$2147483647, %ebx
	andl	%eax, %edx
	shrl	$31, %ebp
	subl	%edx, %ebx
	cvtsi2sdl	%ebx, %xmm1
	mulsd	%xmm8, %xmm1
	addsd	%xmm1, %xmm0
	cmpq	$7, %rdi
	je	.L38
	movl	28(%rsi), %edx
	pxor	%xmm1, %xmm1
	xorl	%ecx, %edx
	addl	%ebp, %edx
	movl	%edx, %ebp
	movl	%edx, %ebx
	addl	%edx, %edx
	andl	$2147483647, %ebx
	andl	%eax, %edx
	shrl	$31, %ebp
	subl	%edx, %ebx
	cvtsi2sdl	%ebx, %xmm1
	mulsd	%xmm9, %xmm1
	addsd	%xmm1, %xmm0
	cmpq	$8, %rdi
	je	.L38
	movl	32(%rsi), %edx
	pxor	%xmm1, %xmm1
	xorl	%ecx, %edx
	addl	%ebp, %edx
	movl	%edx, %ebp
	movl	%edx, %ebx
	addl	%edx, %edx
	andl	$2147483647, %ebx
	andl	%eax, %edx
	shrl	$31, %ebp
	subl	%edx, %ebx
	cvtsi2sdl	%ebx, %xmm1
	mulsd	%xmm10, %xmm1
	addsd	%xmm1, %xmm0
	cmpq	$10, %rdi
	jne	.L38
	xorl	36(%rsi), %ecx
	pxor	%xmm1, %xmm1
	addl	%ebp, %ecx
	movl	%ecx, %edx
	addl	%ecx, %ecx
	andl	$2147483647, %edx
	andl	%eax, %ecx
	movl	%edx, %eax
	subl	%ecx, %eax
	cvtsi2sdl	%eax, %xmm1
	mulsd	%xmm11, %xmm1
	addsd	%xmm1, %xmm0
.L38:
	movsd	%xmm0, (%r9)
	addq	$8, %r9
	addq	%r10, %rsi
	cmpq	%r8, %r9
	jne	.L39
	popq	%rbx
	.cfi_def_cfa_offset 16
	popq	%rbp
	.cfi_def_cfa_offset 8
	ret
.L67:
	.cfi_restore 3
	.cfi_restore 6
	movl	$8, %edx
	xorl	%esi, %esi
	salq	%cl, %rdx
	jmp	memset@PLT
	.cfi_endproc
.LFE5550:
	.size	poly_big_to_fp, .-poly_big_to_fp
	.p2align 4
	.type	poly_sub_scaled, @function
poly_sub_scaled:
.LFB5552:
	.cfi_startproc
	pushq	%r15
	.cfi_def_cfa_offset 16
	.cfi_offset 15, -16
	movq	%rsi, %rax
	pushq	%r14
	.cfi_def_cfa_offset 24
	.cfi_offset 14, -24
	pushq	%r13
	.cfi_def_cfa_offset 32
	.cfi_offset 13, -32
	pushq	%r12
	.cfi_def_cfa_offset 40
	.cfi_offset 12, -40
	pushq	%rbp
	.cfi_def_cfa_offset 48
	.cfi_offset 6, -48
	pushq	%rbx
	.cfi_def_cfa_offset 56
	.cfi_offset 3, -56
	movl	$1, %ebx
	movl	72(%rsp), %r14d
	movq	%rcx, -8(%rsp)
	movl	80(%rsp), %ecx
	movq	%rdi, -32(%rsp)
	salq	%cl, %rbx
	leaq	0(,%rdx,4), %rcx
	movl	64(%rsp), %edx
	movq	%rcx, -56(%rsp)
	leaq	0(,%r8,4), %rcx
	movq	%rbx, -24(%rsp)
	subq	$1, %rbx
	movq	%rcx, -72(%rsp)
	leaq	0(,%r9,4), %rcx
	movq	%rcx, -80(%rsp)
	movq	%rbx, -96(%rsp)
	testq	%r8, %r8
	je	.L68
	cmpq	%rdx, %rsi
	jbe	.L68
	leaq	0(,%rdx,4), %rbx
	movq	%rdi, -16(%rsp)
	subq	%rdx, %rax
	movq	%r8, %r13
	movq	$0, -40(%rsp)
	movq	%rax, %r15
	movq	%rbx, -64(%rsp)
	movl	$31, %ebx
	subl	%r14d, %ebx
	.p2align 4,,10
	.p2align 3
.L76:
	movq	-40(%rsp), %rax
	movq	56(%rsp), %rcx
	movq	-8(%rsp), %rbp
	movl	(%rcx,%rax,4), %edi
	movq	-16(%rsp), %rcx
	movq	%rax, %r12
	negl	%edi
	movq	%rcx, -104(%rsp)
	movl	%edi, -44(%rsp)
	movslq	%edi, %r11
	movq	-24(%rsp), %rdi
	addq	%rdi, %rax
	movq	%rax, -88(%rsp)
	.p2align 4,,10
	.p2align 3
.L75:
	movq	-72(%rsp), %rax
	xorl	%edx, %edx
	movq	-104(%rsp), %r9
	xorl	%esi, %esi
	addq	-64(%rsp), %r9
	xorl	%r8d, %r8d
	movslq	%edx, %rdi
	movl	-4(%rbp,%rax), %eax
	movl	%eax, %r10d
	movl	%eax, -48(%rsp)
	shrl	$30, %r10d
	negl	%r10d
	shrl	%r10d
	.p2align 4,,10
	.p2align 3
.L71:
	movl	%r10d, %edx
	cmpq	%rsi, %r13
	jbe	.L70
	movl	0(%rbp,%rsi,4), %edx
.L70:
	movl	%edx, %eax
	movl	%r14d, %ecx
	sall	%cl, %eax
	movl	%ebx, %ecx
	andl	$2147483647, %eax
	shrl	%cl, %edx
	orl	%r8d, %eax
	movl	%edx, %r8d
	movl	(%r9,%rsi,4), %edx
	imulq	%r11, %rax
	addq	%rdx, %rax
	leaq	(%rax,%rdi), %rdx
	movl	%edx, %eax
	shrq	$31, %rdx
	andl	$2147483647, %eax
	movslq	%edx, %rdi
	movl	%eax, (%r9,%rsi,4)
	addq	$1, %rsi
	cmpq	%rsi, %r15
	jne	.L71
	cmpq	%r12, -96(%rsp)
	je	.L85
	movq	-56(%rsp), %rcx
	addq	-80(%rsp), %rbp
	addq	$1, %r12
	addq	%rcx, -104(%rsp)
	cmpq	%r12, -88(%rsp)
	jne	.L75
.L74:
	addq	$1, -40(%rsp)
	movq	-56(%rsp), %rdi
	movq	-40(%rsp), %rax
	addq	%rdi, -16(%rsp)
	cmpq	%rax, -24(%rsp)
	jne	.L76
.L68:
	popq	%rbx
	.cfi_remember_state
	.cfi_def_cfa_offset 48
	popq	%rbp
	.cfi_def_cfa_offset 40
	popq	%r12
	.cfi_def_cfa_offset 32
	popq	%r13
	.cfi_def_cfa_offset 24
	popq	%r14
	.cfi_def_cfa_offset 16
	popq	%r15
	.cfi_def_cfa_offset 8
	ret
	.p2align 4,,10
	.p2align 3
.L85:
	.cfi_restore_state
	movq	-96(%rsp), %rax
	negl	-44(%rsp)
	addq	-80(%rsp), %rbp
	leaq	1(%rax), %r12
	cmpq	-88(%rsp), %r12
	je	.L74
	movq	-32(%rsp), %rax
	movslq	-44(%rsp), %r11
	movq	%rax, -104(%rsp)
	jmp	.L75
	.cfi_endproc
.LFE5552:
	.size	poly_sub_scaled, .-poly_sub_scaled
	.p2align 4
	.type	poly_small_mkgauss, @function
poly_small_mkgauss:
.LFB5567:
	.cfi_startproc
	pushq	%r15
	.cfi_def_cfa_offset 16
	.cfi_offset 15, -16
	movl	%edx, %ecx
	leaq	gauss_1024_12289(%rip), %r15
	pushq	%r14
	.cfi_def_cfa_offset 24
	.cfi_offset 14, -24
	pushq	%r13
	.cfi_def_cfa_offset 32
	.cfi_offset 13, -32
	pushq	%r12
	.cfi_def_cfa_offset 40
	.cfi_offset 12, -40
	movabsq	$9223372036854775807, %r12
	pushq	%rbp
	.cfi_def_cfa_offset 48
	.cfi_offset 6, -48
	movq	%rdi, %rbp
	pushq	%rbx
	.cfi_def_cfa_offset 56
	.cfi_offset 3, -56
	subq	$88, %rsp
	.cfi_def_cfa_offset 144
	movq	%rsi, 56(%rsp)
	leaq	64(%rsp), %r13
	movq	%fs:40, %rax
	movq	%rax, 72(%rsp)
	movl	$1, %eax
	movq	%rsi, 40(%rsp)
	movl	$0, 20(%rsp)
	salq	%cl, %rax
	movl	$10, %ecx
	subl	%edx, %ecx
	movl	$1, %edx
	leaq	-1(%rax), %rbx
	addq	%rsi, %rax
	sall	%cl, %edx
	movq	%rbx, 24(%rsp)
	movl	%edx, 16(%rsp)
	movq	%rax, 48(%rsp)
.L87:
	movq	40(%rsp), %rax
	subq	56(%rsp), %rax
	movq	%rax, 32(%rsp)
.L97:
	movl	$0, 12(%rsp)
	xorl	%r14d, %r14d
	.p2align 4,,10
	.p2align 3
.L89:
	movl	$8, %edx
	movq	%r13, %rsi
	movq	%rbp, %rdi
	call	falcon_inner_i_shake256_extract@PLT
	movq	64(%rsp), %rcx
	movq	%r13, %rsi
	movq	%rbp, %rdi
	movabsq	$-1283868770400643928, %rax
	movl	$8, %edx
	movq	%rcx, %rbx
	andq	%r12, %rcx
	addq	%rax, %rcx
	shrq	$63, %rbx
	shrq	$63, %rcx
	movl	%ecx, 8(%rsp)
	call	falcon_inner_i_shake256_extract@PLT
	movq	64(%rsp), %r10
	movl	8(%rsp), %ecx
	xorl	%edi, %edi
	movl	$1, %esi
	andq	%r12, %r10
	.p2align 4,,10
	.p2align 3
.L88:
	movq	%r10, %rdx
	subq	(%r15,%rsi,8), %rdx
	movl	%ecx, %eax
	shrq	$63, %rdx
	xorl	$1, %eax
	xorl	$1, %edx
	andl	%edx, %eax
	orl	%edx, %ecx
	negl	%eax
	andl	%esi, %eax
	addq	$1, %rsi
	orl	%eax, %edi
	cmpq	$27, %rsi
	jne	.L88
	movl	%ebx, %eax
	addl	$1, %r14d
	negl	%eax
	xorl	%edi, %eax
	addl	%ebx, %eax
	addl	%eax, 12(%rsp)
	cmpl	%r14d, 16(%rsp)
	ja	.L89
	movl	12(%rsp), %ebx
	leal	127(%rbx), %eax
	cmpl	$254, %eax
	ja	.L97
	movl	%ebx, %eax
	movq	32(%rsp), %rdi
	andl	$1, %eax
	cmpq	%rdi, 24(%rsp)
	jne	.L91
	cmpl	%eax, 20(%rsp)
	je	.L97
.L92:
	movq	40(%rsp), %rax
	movzbl	12(%rsp), %ebx
	addq	$1, %rax
	movb	%bl, -1(%rax)
	movq	%rax, 40(%rsp)
	cmpq	%rax, 48(%rsp)
	jne	.L87
	movq	72(%rsp), %rax
	subq	%fs:40, %rax
	jne	.L99
	addq	$88, %rsp
	.cfi_remember_state
	.cfi_def_cfa_offset 56
	popq	%rbx
	.cfi_def_cfa_offset 48
	popq	%rbp
	.cfi_def_cfa_offset 40
	popq	%r12
	.cfi_def_cfa_offset 32
	popq	%r13
	.cfi_def_cfa_offset 24
	popq	%r14
	.cfi_def_cfa_offset 16
	popq	%r15
	.cfi_def_cfa_offset 8
	ret
.L91:
	.cfi_restore_state
	xorl	%eax, 20(%rsp)
	jmp	.L92
.L99:
	call	__stack_chk_fail@PLT
	.cfi_endproc
.LFE5567:
	.size	poly_small_mkgauss, .-poly_small_mkgauss
	.p2align 4
	.type	modp_iNTT2_ext.part.0, @function
modp_iNTT2_ext.part.0:
.LFB5570:
	.cfi_startproc
	pushq	%r15
	.cfi_def_cfa_offset 16
	.cfi_offset 15, -16
	pushq	%r14
	.cfi_def_cfa_offset 24
	.cfi_offset 14, -24
	movl	%r9d, %r14d
	pushq	%r13
	.cfi_def_cfa_offset 32
	.cfi_offset 13, -32
	movl	%r8d, %r13d
	pushq	%r12
	.cfi_def_cfa_offset 40
	.cfi_offset 12, -40
	movq	%r13, %rax
	pushq	%rbp
	.cfi_def_cfa_offset 48
	.cfi_offset 6, -48
	pushq	%rbx
	.cfi_def_cfa_offset 56
	.cfi_offset 3, -56
	movl	$1, %ebx
	salq	%cl, %rbx
	movq	%rdi, -40(%rsp)
	movq	%rsi, -48(%rsp)
	movq	%rdx, -32(%rsp)
	movl	%ecx, -4(%rsp)
	movq	%rbx, -24(%rsp)
	movq	%rbx, -56(%rsp)
	cmpq	$1, %rsi
	jne	.L135
	.p2align 4,,10
	.p2align 3
.L101:
	movq	-48(%rsp), %rsi
	shrq	-56(%rsp)
	movq	-56(%rsp), %rdi
	movq	%rsi, %rbx
	addq	%rsi, %rsi
	movq	%rsi, -48(%rsp)
	leaq	0(,%rbx,4), %r15
	testq	%rbx, %rbx
	je	.L107
	movq	-32(%rsp), %rdx
	salq	$2, %rsi
	movq	-40(%rsp), %rbp
	movq	%rsi, -64(%rsp)
	leaq	(%rdx,%rdi,8), %rsi
	leaq	(%rdx,%rdi,4), %r12
	movq	%rsi, -72(%rsp)
	.p2align 4,,10
	.p2align 3
.L109:
	movl	(%r12), %r11d
	movq	%rbp, %r8
	leaq	(%r15,%rbp), %rdi
	xorl	%r9d, %r9d
	.p2align 4,,10
	.p2align 3
.L108:
	movl	(%r8), %edx
	movl	(%rdi), %esi
	addq	$1, %r9
	addq	$4, %r8
	addq	$4, %rdi
	leal	(%rsi,%rdx), %r10d
	subl	%esi, %edx
	subl	%eax, %r10d
	movl	%r10d, %ecx
	sarl	$31, %ecx
	andl	%eax, %ecx
	addl	%r10d, %ecx
	movl	%ecx, -4(%r8)
	movl	%edx, %ecx
	sarl	$31, %ecx
	andl	%eax, %ecx
	addl	%edx, %ecx
	movl	%ecx, %ecx
	imulq	%r11, %rcx
	movq	%rcx, %rdx
	imulq	%r14, %rdx
	andl	$2147483647, %edx
	imulq	%r13, %rdx
	addq	%rcx, %rdx
	shrq	$31, %rdx
	subl	%eax, %edx
	movl	%edx, %ecx
	sarl	$31, %ecx
	andl	%eax, %ecx
	addl	%ecx, %edx
	movl	%edx, -4(%rdi)
	cmpq	%rbx, %r9
	jne	.L108
	addq	$4, %r12
	addq	-64(%rsp), %rbp
	cmpq	%r12, -72(%rsp)
	jne	.L109
.L107:
	cmpq	$1, -56(%rsp)
	jne	.L101
	movzbl	-4(%rsp), %ecx
	movl	$-2147483648, %edi
	movq	-24(%rsp), %r9
	xorl	%esi, %esi
	movq	-40(%rsp), %r8
	shrl	%cl, %edi
	.p2align 4,,10
	.p2align 3
.L113:
	movl	(%r8), %ecx
	addq	$1, %rsi
	addq	$4, %r8
	imulq	%rdi, %rcx
	movq	%rcx, %rdx
	imulq	%r14, %rdx
	andl	$2147483647, %edx
	imulq	%r13, %rdx
	addq	%rcx, %rdx
	shrq	$31, %rdx
	subl	%eax, %edx
	movl	%edx, %ecx
	sarl	$31, %ecx
	andl	%eax, %ecx
	addl	%ecx, %edx
	movl	%edx, -4(%r8)
	cmpq	%rsi, %r9
	jne	.L113
	popq	%rbx
	.cfi_remember_state
	.cfi_def_cfa_offset 48
	popq	%rbp
	.cfi_def_cfa_offset 40
	popq	%r12
	.cfi_def_cfa_offset 32
	popq	%r13
	.cfi_def_cfa_offset 24
	popq	%r14
	.cfi_def_cfa_offset 16
	popq	%r15
	.cfi_def_cfa_offset 8
	ret
.L135:
	.cfi_restore_state
	movq	%rbx, -48(%rsp)
	leaq	0(,%rsi,4), %r15
	movq	$1, -16(%rsp)
.L105:
	movq	-16(%rsp), %rdi
	movq	%r15, %rdx
	shrq	-48(%rsp)
	movq	-48(%rsp), %rsi
	movq	%rdi, %rbx
	addq	%rdi, %rdi
	imulq	%rbx, %rdx
	movq	%rdi, -16(%rsp)
	movq	%rdx, -72(%rsp)
	testq	%rbx, %rbx
	je	.L102
	imulq	%r15, %rdi
	movq	-32(%rsp), %rdx
	movq	-40(%rsp), %rbp
	leaq	(%rdx,%rsi,4), %r12
	movq	%rdi, -56(%rsp)
	leaq	(%rdx,%rsi,8), %rdi
	movq	%rdi, -64(%rsp)
	.p2align 4,,10
	.p2align 3
.L104:
	movq	-72(%rsp), %rsi
	movl	(%r12), %r11d
	movq	%rbp, %rdi
	xorl	%r9d, %r9d
	addq	%rbp, %rsi
	.p2align 4,,10
	.p2align 3
.L103:
	movl	(%rdi), %r10d
	movl	(%rsi), %r8d
	addq	$1, %r9
	leal	(%r10,%r8), %edx
	subl	%eax, %edx
	movl	%edx, %ecx
	sarl	$31, %ecx
	andl	%eax, %ecx
	addl	%edx, %ecx
	movl	%r10d, %edx
	subl	%r8d, %edx
	movl	%ecx, (%rdi)
	addq	%r15, %rdi
	movl	%edx, %ecx
	sarl	$31, %ecx
	andl	%eax, %ecx
	addl	%edx, %ecx
	movl	%ecx, %ecx
	imulq	%r11, %rcx
	movq	%rcx, %rdx
	imulq	%r14, %rdx
	andl	$2147483647, %edx
	imulq	%r13, %rdx
	addq	%rcx, %rdx
	shrq	$31, %rdx
	subl	%eax, %edx
	movl	%edx, %ecx
	sarl	$31, %ecx
	andl	%eax, %ecx
	addl	%ecx, %edx
	movl	%edx, (%rsi)
	addq	%r15, %rsi
	cmpq	%rbx, %r9
	jne	.L103
	addq	$4, %r12
	addq	-56(%rsp), %rbp
	cmpq	%r12, -64(%rsp)
	jne	.L104
.L102:
	cmpq	$1, -48(%rsp)
	jne	.L105
	movzbl	-4(%rsp), %ecx
	movl	$-2147483648, %esi
	movq	-40(%rsp), %r8
	shrl	%cl, %esi
	xorl	%ecx, %ecx
.L111:
	movl	(%r8), %edi
	addq	$1, %rcx
	imulq	%rsi, %rdi
	movq	%rdi, %rdx
	imulq	%r14, %rdx
	andl	$2147483647, %edx
	imulq	%r13, %rdx
	addq	%rdi, %rdx
	shrq	$31, %rdx
	subl	%eax, %edx
	movl	%edx, %edi
	sarl	$31, %edi
	andl	%eax, %edi
	addl	%edi, %edx
	movl	%edx, (%r8)
	addq	%r15, %r8
	cmpq	%rcx, -24(%rsp)
	jne	.L111
	popq	%rbx
	.cfi_def_cfa_offset 48
	popq	%rbp
	.cfi_def_cfa_offset 40
	popq	%r12
	.cfi_def_cfa_offset 32
	popq	%r13
	.cfi_def_cfa_offset 24
	popq	%r14
	.cfi_def_cfa_offset 16
	popq	%r15
	.cfi_def_cfa_offset 8
	ret
	.cfi_endproc
.LFE5570:
	.size	modp_iNTT2_ext.part.0, .-modp_iNTT2_ext.part.0
	.p2align 4
	.type	modp_NTT2_ext.part.0.constprop.0, @function
modp_NTT2_ext.part.0.constprop.0:
.LFB5578:
	.cfi_startproc
	movdqa	.LC10(%rip), %xmm9
	pushq	%r15
	.cfi_def_cfa_offset 16
	.cfi_offset 15, -16
	movl	$1, %eax
	movl	%ecx, %r15d
	pushq	%r14
	.cfi_def_cfa_offset 24
	.cfi_offset 14, -24
	movl	%edx, %ecx
	movl	%r8d, %r14d
	movq	%r15, %xmm5
	pushq	%r13
	.cfi_def_cfa_offset 32
	.cfi_offset 13, -32
	salq	%cl, %rax
	movq	%r14, %xmm6
	punpcklqdq	%xmm5, %xmm5
	pushq	%r12
	.cfi_def_cfa_offset 40
	.cfi_offset 12, -40
	punpcklqdq	%xmm6, %xmm6
	movdqa	%xmm5, %xmm8
	movq	%r15, %r13
	pushq	%rbp
	.cfi_def_cfa_offset 48
	.cfi_offset 6, -48
	movdqa	%xmm6, %xmm10
	psrlq	$32, %xmm8
	movq	%rax, %r12
	pushq	%rbx
	.cfi_def_cfa_offset 56
	.cfi_offset 3, -56
	psrlq	$32, %xmm10
	movq	%rdi, -24(%rsp)
	movq	%rsi, -16(%rsp)
	movq	%rax, -32(%rsp)
	movq	$1, -48(%rsp)
	.p2align 4,,10
	.p2align 3
.L144:
	movq	%r12, %rdx
	shrq	%r12
	leaq	0(,%r12,4), %rax
	je	.L137
	movq	-16(%rsp), %rbx
	movq	-48(%rsp), %rsi
	leaq	16(%rax), %r11
	leaq	0(,%rdx,4), %rdi
	shrq	$3, %rdx
	movq	%rdi, -96(%rsp)
	movd	%r13d, %xmm7
	movl	$16, %r10d
	leaq	(%rbx,%rsi,4), %rbp
	leaq	(%rbx,%rsi,8), %rbx
	pshufd	$0, %xmm7, %xmm4
	movq	%rdx, %r9
	movq	%rbx, -88(%rsp)
	leaq	0(,%rdx,4), %rbx
	salq	$4, %r9
	leaq	1(%rbx), %rdx
	movq	%rbx, -72(%rsp)
	addq	$2, %rbx
	movq	%rbx, -56(%rsp)
	movq	-24(%rsp), %rbx
	movq	%rdx, -64(%rsp)
	subq	$16, %rbx
	addq	%rbx, %rax
	movq	%rbx, -112(%rsp)
	movq	%rax, -104(%rsp)
	leaq	-1(%r12), %rax
	movq	%rax, -80(%rsp)
	.p2align 4,,10
	.p2align 3
.L141:
	movq	-112(%rsp), %rax
	leaq	-16(%r11), %rsi
	movq	-104(%rsp), %rbx
	movl	0(%rbp), %ecx
	addq	%r10, %rax
	cmpq	%rsi, %r10
	leaq	-16(%r10), %rsi
	setle	%dil
	cmpq	%rsi, %r11
	leaq	(%rbx,%r10), %rdx
	movl	%ecx, %ebx
	setle	%sil
	orb	%dil, %sil
	je	.L159
	cmpq	$3, -80(%rsp)
	jbe	.L159
	movd	%ecx, %xmm7
	movq	-112(%rsp), %rsi
	xorl	%ecx, %ecx
	pshufd	$0, %xmm7, %xmm7
	movdqa	%xmm7, %xmm11
	addq	%r11, %rsi
	punpckldq	%xmm7, %xmm11
	punpckhdq	%xmm7, %xmm7
	.p2align 4,,10
	.p2align 3
.L139:
	movdqu	(%rsi,%rcx), %xmm1
	movdqa	%xmm10, %xmm12
	movdqu	(%rax,%rcx), %xmm3
	movdqa	%xmm1, %xmm13
	punpckldq	%xmm1, %xmm13
	punpckhdq	%xmm1, %xmm1
	pmuludq	%xmm11, %xmm13
	pmuludq	%xmm7, %xmm1
	movdqa	%xmm13, %xmm0
	pmuludq	%xmm13, %xmm12
	movdqa	%xmm13, %xmm2
	psrlq	$32, %xmm0
	pmuludq	%xmm6, %xmm2
	pmuludq	%xmm6, %xmm0
	paddq	%xmm12, %xmm0
	psllq	$32, %xmm0
	paddq	%xmm0, %xmm2
	pand	%xmm9, %xmm2
	movdqa	%xmm2, %xmm12
	movdqa	%xmm2, %xmm0
	psrlq	$32, %xmm12
	pmuludq	%xmm8, %xmm2
	pmuludq	%xmm5, %xmm12
	pmuludq	%xmm5, %xmm0
	paddq	%xmm2, %xmm12
	movdqa	%xmm1, %xmm2
	psllq	$32, %xmm12
	pmuludq	%xmm6, %xmm2
	paddq	%xmm12, %xmm0
	movdqa	%xmm1, %xmm12
	paddq	%xmm13, %xmm0
	psrlq	$32, %xmm12
	movdqa	%xmm10, %xmm13
	pmuludq	%xmm1, %xmm13
	pmuludq	%xmm6, %xmm12
	psrlq	$31, %xmm0
	paddq	%xmm13, %xmm12
	psllq	$32, %xmm12
	paddq	%xmm12, %xmm2
	pand	%xmm9, %xmm2
	movdqa	%xmm2, %xmm13
	movdqa	%xmm2, %xmm12
	psrlq	$32, %xmm13
	pmuludq	%xmm8, %xmm2
	pmuludq	%xmm5, %xmm13
	pmuludq	%xmm5, %xmm12
	paddq	%xmm2, %xmm13
	movdqa	%xmm12, %xmm2
	psllq	$32, %xmm13
	paddq	%xmm13, %xmm2
	paddq	%xmm2, %xmm1
	movdqa	%xmm3, %xmm2
	psrlq	$31, %xmm1
	psubd	%xmm4, %xmm2
	shufps	$136, %xmm1, %xmm0
	movdqa	%xmm0, %xmm1
	psubd	%xmm4, %xmm1
	movdqa	%xmm1, %xmm0
	psrad	$31, %xmm0
	pand	%xmm4, %xmm0
	paddd	%xmm1, %xmm0
	paddd	%xmm0, %xmm2
	psubd	%xmm0, %xmm3
	movdqa	%xmm2, %xmm1
	psrad	$31, %xmm1
	pand	%xmm4, %xmm1
	paddd	%xmm2, %xmm1
	movups	%xmm1, (%rax,%rcx)
	movdqa	%xmm3, %xmm1
	psrad	$31, %xmm3
	pand	%xmm4, %xmm3
	paddd	%xmm1, %xmm3
	movups	%xmm3, (%rsi,%rcx)
	addq	$16, %rcx
	cmpq	%r9, %rcx
	jne	.L139
	addq	%r9, %rax
	addq	%r9, %rdx
	cmpq	-72(%rsp), %r12
	je	.L143
	movl	(%rdx), %edi
	movl	(%rax), %esi
	imulq	%rbx, %rdi
	movq	%rdi, %rcx
	imulq	%r14, %rcx
	andl	$2147483647, %ecx
	imulq	%r15, %rcx
	addq	%rdi, %rcx
	shrq	$31, %rcx
	subl	%r13d, %ecx
	movl	%ecx, %edi
	sarl	$31, %edi
	andl	%r13d, %edi
	addl	%edi, %ecx
	movl	%esi, %edi
	subl	%r13d, %edi
	subl	%ecx, %esi
	addl	%ecx, %edi
	movl	%esi, %ecx
	movl	%edi, %r8d
	sarl	$31, %ecx
	sarl	$31, %r8d
	andl	%r13d, %ecx
	andl	%r13d, %r8d
	addl	%ecx, %esi
	addl	%r8d, %edi
	movl	%edi, (%rax)
	movl	%esi, (%rdx)
	cmpq	-64(%rsp), %r12
	jbe	.L143
	movl	4(%rdx), %edi
	movq	%r14, %rcx
	movl	4(%rax), %esi
	imulq	%rbx, %rdi
	imulq	%rdi, %rcx
	andl	$2147483647, %ecx
	imulq	%r15, %rcx
	addq	%rdi, %rcx
	shrq	$31, %rcx
	subl	%r13d, %ecx
	movl	%ecx, %edi
	sarl	$31, %edi
	andl	%r13d, %edi
	addl	%edi, %ecx
	movl	%esi, %edi
	subl	%r13d, %edi
	subl	%ecx, %esi
	addl	%ecx, %edi
	movl	%esi, %ecx
	movl	%edi, %r8d
	sarl	$31, %ecx
	sarl	$31, %r8d
	andl	%r13d, %ecx
	andl	%r13d, %r8d
	addl	%ecx, %esi
	addl	%r8d, %edi
	movl	%edi, 4(%rax)
	movl	%esi, 4(%rdx)
	cmpq	-56(%rsp), %r12
	jbe	.L143
	movl	8(%rdx), %edi
	movl	8(%rax), %esi
	imulq	%rbx, %rdi
	movl	%esi, %r8d
	subl	%r13d, %r8d
	movq	%rdi, %rcx
	imulq	%r14, %rcx
	andl	$2147483647, %ecx
	imulq	%r15, %rcx
	addq	%rcx, %rdi
	shrq	$31, %rdi
	subl	%r13d, %edi
	movl	%edi, %ecx
	sarl	$31, %ecx
	andl	%r13d, %ecx
	addl	%edi, %ecx
	addl	%ecx, %r8d
	subl	%ecx, %esi
	movl	%r8d, %edi
	sarl	$31, %edi
	andl	%r13d, %edi
	addl	%r8d, %edi
	movl	%edi, 8(%rax)
	movl	%esi, %eax
	sarl	$31, %eax
	andl	%r13d, %eax
	addl	%esi, %eax
	movl	%eax, 8(%rdx)
.L143:
	movq	-96(%rsp), %rax
	addq	$4, %rbp
	addq	%rax, %r11
	addq	%rax, %r10
	cmpq	-88(%rsp), %rbp
	jne	.L141
.L137:
	salq	-48(%rsp)
	movq	-48(%rsp), %rax
	cmpq	%rax, -32(%rsp)
	ja	.L144
	popq	%rbx
	.cfi_remember_state
	.cfi_def_cfa_offset 48
	popq	%rbp
	.cfi_def_cfa_offset 40
	popq	%r12
	.cfi_def_cfa_offset 32
	popq	%r13
	.cfi_def_cfa_offset 24
	popq	%r14
	.cfi_def_cfa_offset 16
	popq	%r15
	.cfi_def_cfa_offset 8
	ret
	.p2align 4,,10
	.p2align 3
.L159:
	.cfi_restore_state
	movq	-104(%rsp), %rsi
	movq	%r12, -40(%rsp)
	addq	%r11, %rsi
	movq	%rsi, %r12
	.p2align 4,,10
	.p2align 3
.L149:
	movl	(%rdx), %ecx
	movl	(%rax), %esi
	addq	$4, %rdx
	addq	$4, %rax
	imulq	%rbx, %rcx
	movl	%esi, %r8d
	subl	%r13d, %r8d
	movq	%rcx, %rdi
	imulq	%r14, %rdi
	andl	$2147483647, %edi
	imulq	%r15, %rdi
	addq	%rcx, %rdi
	shrq	$31, %rdi
	subl	%r13d, %edi
	movl	%edi, %ecx
	sarl	$31, %ecx
	andl	%r13d, %ecx
	addl	%edi, %ecx
	addl	%ecx, %r8d
	subl	%ecx, %esi
	movl	%r8d, %edi
	sarl	$31, %edi
	andl	%r13d, %edi
	addl	%r8d, %edi
	movl	%edi, -4(%rax)
	movl	%esi, %edi
	sarl	$31, %esi
	andl	%r13d, %esi
	leal	(%rsi,%rdi), %esi
	movl	%esi, -4(%rdx)
	cmpq	%r12, %rdx
	jne	.L149
	movq	-40(%rsp), %r12
	jmp	.L143
	.cfi_endproc
.LFE5578:
	.size	modp_NTT2_ext.part.0.constprop.0, .-modp_NTT2_ext.part.0.constprop.0
	.p2align 4
	.type	modp_iNTT2_ext.part.0.constprop.0, @function
modp_iNTT2_ext.part.0.constprop.0:
.LFB5577:
	.cfi_startproc
	pushq	%r15
	.cfi_def_cfa_offset 16
	.cfi_offset 15, -16
	movl	$1, %eax
	pushq	%r14
	.cfi_def_cfa_offset 24
	.cfi_offset 14, -24
	movl	%r8d, %r14d
	pushq	%r13
	.cfi_def_cfa_offset 32
	.cfi_offset 13, -32
	movq	%r14, %xmm5
	pushq	%r12
	.cfi_def_cfa_offset 40
	.cfi_offset 12, -40
	punpcklqdq	%xmm5, %xmm5
	pushq	%rbp
	.cfi_def_cfa_offset 48
	.cfi_offset 6, -48
	movdqa	%xmm5, %xmm9
	pushq	%rbx
	.cfi_def_cfa_offset 56
	.cfi_offset 3, -56
	movl	%ecx, %ebx
	psrlq	$32, %xmm9
	movl	%edx, %ecx
	salq	%cl, %rax
	movq	%rbx, %xmm4
	movd	%ebx, %xmm7
	movq	%rbx, %r15
	punpcklqdq	%xmm4, %xmm4
	pshufd	$0, %xmm7, %xmm3
	subq	$32, %rsp
	.cfi_def_cfa_offset 88
	movdqa	%xmm4, %xmm7
	movdqa	.LC10(%rip), %xmm8
	movq	%rdi, -8(%rsp)
	psrlq	$32, %xmm7
	movq	%rsi, (%rsp)
	movl	%edx, 20(%rsp)
	movq	%rax, 8(%rsp)
	movq	%rbx, -56(%rsp)
	movq	%rax, -32(%rsp)
	movq	$1, -16(%rsp)
	.p2align 4,,10
	.p2align 3
.L168:
	movq	-16(%rsp), %rbx
	shrq	-32(%rsp)
	movq	-32(%rsp), %rdi
	movq	%rbx, %rbp
	addq	%rbx, %rbx
	movq	%rbx, -16(%rsp)
	leaq	0(,%rbp,4), %rax
	testq	%rbp, %rbp
	je	.L161
	movq	(%rsp), %rsi
	salq	$2, %rbx
	movq	%rbp, %r11
	movl	$16, %r9d
	movq	%rbx, -104(%rsp)
	leaq	16(%rax), %rbx
	shrq	$2, %r11
	leaq	(%rsi,%rdi,4), %r13
	leaq	(%rsi,%rdi,8), %rdi
	movq	%rdi, -112(%rsp)
	movq	%rbp, %rdi
	andq	$-4, %rdi
	leaq	0(,%rdi,4), %rsi
	movq	%rdi, -64(%rsp)
	movq	%rsi, -72(%rsp)
	leaq	1(%rdi), %rsi
	addq	$2, %rdi
	movq	%rdi, -40(%rsp)
	movq	-8(%rsp), %rdi
	movq	%rsi, -48(%rsp)
	subq	$16, %rdi
	addq	%rdi, %rax
	movq	%rdi, -88(%rsp)
	movq	%rax, -96(%rsp)
	leaq	-1(%rbp), %rax
	movq	%rax, -80(%rsp)
	.p2align 4,,10
	.p2align 3
.L165:
	movq	-96(%rsp), %rdi
	leaq	-16(%rbx), %rcx
	movq	-88(%rsp), %r10
	movl	0(%r13), %r12d
	addq	%r9, %rdi
	cmpq	%r9, %rcx
	leaq	-16(%r9), %rcx
	setge	%sil
	cmpq	%rbx, %rcx
	leaq	(%r10,%r9), %rax
	setge	%cl
	orb	%sil, %cl
	je	.L172
	cmpq	$3, -80(%rsp)
	jbe	.L172
	movd	%r12d, %xmm6
	leaq	(%r10,%rbx), %rsi
	xorl	%edx, %edx
	xorl	%ecx, %ecx
	pshufd	$0, %xmm6, %xmm6
	movdqa	%xmm6, %xmm10
	punpckldq	%xmm6, %xmm10
	punpckhdq	%xmm6, %xmm6
	.p2align 4,,10
	.p2align 3
.L163:
	movdqu	(%rax,%rdx), %xmm1
	movdqu	(%rsi,%rdx), %xmm11
	movdqa	%xmm9, %xmm12
	addq	$1, %rcx
	movdqa	%xmm1, %xmm2
	psubd	%xmm11, %xmm1
	paddd	%xmm11, %xmm2
	psubd	%xmm3, %xmm2
	movdqa	%xmm2, %xmm0
	psrad	$31, %xmm0
	pand	%xmm3, %xmm0
	paddd	%xmm2, %xmm0
	movups	%xmm0, (%rax,%rdx)
	movdqa	%xmm1, %xmm0
	psrad	$31, %xmm0
	pand	%xmm3, %xmm0
	paddd	%xmm1, %xmm0
	movdqa	%xmm0, %xmm11
	punpckldq	%xmm0, %xmm11
	punpckhdq	%xmm0, %xmm0
	pmuludq	%xmm10, %xmm11
	pmuludq	%xmm6, %xmm0
	movdqa	%xmm11, %xmm1
	pmuludq	%xmm11, %xmm12
	movdqa	%xmm11, %xmm2
	psrlq	$32, %xmm1
	pmuludq	%xmm5, %xmm2
	pmuludq	%xmm5, %xmm1
	paddq	%xmm12, %xmm1
	psllq	$32, %xmm1
	paddq	%xmm1, %xmm2
	pand	%xmm8, %xmm2
	movdqa	%xmm2, %xmm12
	movdqa	%xmm2, %xmm1
	psrlq	$32, %xmm12
	pmuludq	%xmm7, %xmm2
	pmuludq	%xmm4, %xmm12
	pmuludq	%xmm4, %xmm1
	paddq	%xmm2, %xmm12
	movdqa	%xmm0, %xmm2
	psllq	$32, %xmm12
	pmuludq	%xmm5, %xmm2
	paddq	%xmm12, %xmm1
	movdqa	%xmm9, %xmm12
	paddq	%xmm11, %xmm1
	pmuludq	%xmm0, %xmm12
	movdqa	%xmm0, %xmm11
	psrlq	$32, %xmm11
	psrlq	$31, %xmm1
	pmuludq	%xmm5, %xmm11
	paddq	%xmm12, %xmm11
	psllq	$32, %xmm11
	paddq	%xmm11, %xmm2
	pand	%xmm8, %xmm2
	movdqa	%xmm2, %xmm12
	movdqa	%xmm2, %xmm11
	psrlq	$32, %xmm12
	pmuludq	%xmm7, %xmm2
	pmuludq	%xmm4, %xmm12
	pmuludq	%xmm4, %xmm11
	paddq	%xmm2, %xmm12
	movdqa	%xmm11, %xmm2
	psllq	$32, %xmm12
	paddq	%xmm12, %xmm2
	paddq	%xmm2, %xmm0
	psrlq	$31, %xmm0
	shufps	$136, %xmm0, %xmm1
	psubd	%xmm3, %xmm1
	movdqa	%xmm1, %xmm0
	psrad	$31, %xmm0
	pand	%xmm3, %xmm0
	paddd	%xmm1, %xmm0
	movups	%xmm0, (%rsi,%rdx)
	addq	$16, %rdx
	cmpq	%rcx, %r11
	jne	.L163
	movq	-72(%rsp), %rsi
	addq	%rsi, %rax
	addq	%rsi, %rdi
	cmpq	-64(%rsp), %rbp
	je	.L167
	movl	(%rax), %ecx
	movl	(%rdi), %r8d
	movq	-56(%rsp), %r10
	leal	(%rcx,%r8), %edx
	subl	%r8d, %ecx
	subl	%r15d, %edx
	movl	%edx, %esi
	sarl	$31, %esi
	andl	%r15d, %esi
	addl	%esi, %edx
	movl	%edx, (%rax)
	movl	%ecx, %edx
	sarl	$31, %edx
	andl	%r15d, %edx
	addl	%edx, %ecx
	movq	%r14, %rdx
	movl	%ecx, %ecx
	imulq	%r12, %rcx
	imulq	%rcx, %rdx
	andl	$2147483647, %edx
	imulq	%r10, %rdx
	addq	%rcx, %rdx
	shrq	$31, %rdx
	subl	%r15d, %edx
	movl	%edx, %ecx
	sarl	$31, %ecx
	andl	%r15d, %ecx
	addl	%ecx, %edx
	movl	%edx, (%rdi)
	cmpq	-48(%rsp), %rbp
	jbe	.L167
	movl	4(%rax), %ecx
	movl	4(%rdi), %r8d
	leal	(%rcx,%r8), %edx
	subl	%r8d, %ecx
	subl	%r15d, %edx
	movl	%edx, %esi
	sarl	$31, %esi
	andl	%r15d, %esi
	addl	%esi, %edx
	movl	%edx, 4(%rax)
	movl	%ecx, %edx
	sarl	$31, %edx
	andl	%r15d, %edx
	addl	%edx, %ecx
	movq	%r14, %rdx
	movl	%ecx, %ecx
	imulq	%r12, %rcx
	imulq	%rcx, %rdx
	andl	$2147483647, %edx
	imulq	%r10, %rdx
	addq	%rcx, %rdx
	shrq	$31, %rdx
	subl	%r15d, %edx
	movl	%edx, %ecx
	sarl	$31, %ecx
	andl	%r15d, %ecx
	addl	%ecx, %edx
	movl	%edx, 4(%rdi)
	cmpq	-40(%rsp), %rbp
	jbe	.L167
	movl	8(%rax), %edx
	movl	8(%rdi), %r8d
	leal	(%r8,%rdx), %esi
	subl	%r8d, %edx
	subl	%r15d, %esi
	movl	%esi, %ecx
	sarl	$31, %ecx
	andl	%r15d, %ecx
	addl	%esi, %ecx
	movl	%ecx, 8(%rax)
	movl	%edx, %eax
	sarl	$31, %eax
	andl	%r15d, %eax
	addl	%eax, %edx
	movl	%edx, %edx
	imulq	%r12, %rdx
	movq	%rdx, %rax
	imulq	%r14, %rax
	andl	$2147483647, %eax
	imulq	%r10, %rax
	addq	%rdx, %rax
	shrq	$31, %rax
	subl	%r15d, %eax
	cltd
	andl	%r15d, %edx
	addl	%eax, %edx
	movl	%edx, 8(%rdi)
.L167:
	movq	-104(%rsp), %rax
	addq	$4, %r13
	addq	%rax, %rbx
	addq	%rax, %r9
	cmpq	%r13, -112(%rsp)
	jne	.L165
.L161:
	cmpq	$1, -32(%rsp)
	jne	.L168
	movzbl	20(%rsp), %ecx
	movq	8(%rsp), %rbx
	movl	$-2147483648, %eax
	shrl	%cl, %eax
	movl	%eax, %ecx
	leaq	-1(%rbx), %rax
	movq	%rcx, %xmm5
	cmpq	$6, %rax
	jbe	.L173
	movq	%r14, %xmm4
	pshufd	$0, %xmm5, %xmm5
	shrq	$2, %rbx
	xorl	%edx, %edx
	movq	-56(%rsp), %xmm3
	movd	%r15d, %xmm7
	punpcklqdq	%xmm4, %xmm4
	movq	%rbx, %rsi
	movdqa	%xmm5, %xmm10
	pshufd	$0, %xmm7, %xmm9
	movq	-8(%rsp), %rax
	movdqa	%xmm4, %xmm7
	punpcklqdq	%xmm3, %xmm3
	psrlq	$32, %xmm7
	punpckldq	%xmm5, %xmm10
	movdqa	.LC10(%rip), %xmm8
	movdqa	%xmm3, %xmm6
	punpckhdq	%xmm5, %xmm5
	psrlq	$32, %xmm6
.L170:
	movdqu	(%rax), %xmm1
	movdqa	%xmm7, %xmm0
	movdqa	%xmm4, %xmm2
	addq	$1, %rdx
	addq	$16, %rax
	movdqa	%xmm1, %xmm12
	punpckldq	%xmm1, %xmm12
	punpckhdq	%xmm1, %xmm1
	pmuludq	%xmm10, %xmm12
	pmuludq	%xmm5, %xmm1
	pmuludq	%xmm12, %xmm0
	pmuludq	%xmm12, %xmm2
	movdqa	%xmm12, %xmm11
	psrlq	$32, %xmm11
	pmuludq	%xmm4, %xmm11
	paddq	%xmm11, %xmm0
	psllq	$32, %xmm0
	paddq	%xmm0, %xmm2
	pand	%xmm8, %xmm2
	movdqa	%xmm2, %xmm11
	movdqa	%xmm2, %xmm0
	psrlq	$32, %xmm11
	pmuludq	%xmm6, %xmm2
	pmuludq	%xmm3, %xmm11
	pmuludq	%xmm3, %xmm0
	paddq	%xmm2, %xmm11
	movdqa	%xmm4, %xmm2
	psllq	$32, %xmm11
	pmuludq	%xmm1, %xmm2
	paddq	%xmm11, %xmm0
	movdqa	%xmm7, %xmm11
	paddq	%xmm12, %xmm0
	pmuludq	%xmm1, %xmm11
	movdqa	%xmm1, %xmm12
	psrlq	$32, %xmm12
	psrlq	$31, %xmm0
	pmuludq	%xmm4, %xmm12
	paddq	%xmm12, %xmm11
	psllq	$32, %xmm11
	paddq	%xmm11, %xmm2
	pand	%xmm8, %xmm2
	movdqa	%xmm2, %xmm12
	movdqa	%xmm2, %xmm11
	psrlq	$32, %xmm12
	pmuludq	%xmm6, %xmm2
	pmuludq	%xmm3, %xmm12
	pmuludq	%xmm3, %xmm11
	paddq	%xmm2, %xmm12
	movdqa	%xmm11, %xmm2
	psllq	$32, %xmm12
	paddq	%xmm12, %xmm2
	paddq	%xmm2, %xmm1
	psrlq	$31, %xmm1
	shufps	$136, %xmm1, %xmm0
	psubd	%xmm9, %xmm0
	movdqa	%xmm0, %xmm1
	psrad	$31, %xmm1
	pand	%xmm9, %xmm1
	paddd	%xmm1, %xmm0
	movups	%xmm0, -16(%rax)
	cmpq	%rsi, %rdx
	jne	.L170
	movq	8(%rsp), %rax
	movq	-8(%rsp), %rbx
	movq	%rax, %rdx
	andq	$-4, %rdx
	leaq	(%rbx,%rdx,4), %rbx
	movq	%rbx, -8(%rsp)
	cmpq	%rdx, %rax
	je	.L160
.L169:
	movq	-8(%rsp), %rbx
	movq	-56(%rsp), %rdi
	movq	8(%rsp), %r11
	movl	(%rbx), %esi
	imulq	%rcx, %rsi
	movq	%rsi, %rax
	imulq	%r14, %rax
	andl	$2147483647, %eax
	imulq	%rdi, %rax
	addq	%rsi, %rax
	shrq	$31, %rax
	subl	%r15d, %eax
	movl	%eax, %esi
	sarl	$31, %esi
	andl	%r15d, %esi
	addl	%esi, %eax
	movl	%eax, (%rbx)
	leaq	1(%rdx), %rax
	cmpq	%rax, %r11
	jbe	.L160
	movl	4(%rbx), %esi
	imulq	%rcx, %rsi
	movq	%rsi, %rax
	imulq	%r14, %rax
	andl	$2147483647, %eax
	imulq	%rdi, %rax
	addq	%rsi, %rax
	shrq	$31, %rax
	subl	%r15d, %eax
	movl	%eax, %esi
	sarl	$31, %esi
	andl	%r15d, %esi
	addl	%esi, %eax
	movl	%eax, 4(%rbx)
	leaq	2(%rdx), %rax
	cmpq	%rax, %r11
	jbe	.L160
	movl	8(%rbx), %esi
	imulq	%rcx, %rsi
	movq	%rsi, %rax
	imulq	%r14, %rax
	andl	$2147483647, %eax
	imulq	%rdi, %rax
	addq	%rsi, %rax
	shrq	$31, %rax
	subl	%r15d, %eax
	movl	%eax, %esi
	sarl	$31, %esi
	andl	%r15d, %esi
	addl	%esi, %eax
	movl	%eax, 8(%rbx)
	leaq	3(%rdx), %rax
	cmpq	%rax, %r11
	jbe	.L160
	movl	12(%rbx), %esi
	movq	%r14, %rax
	imulq	%rcx, %rsi
	imulq	%rsi, %rax
	andl	$2147483647, %eax
	imulq	%rdi, %rax
	addq	%rsi, %rax
	shrq	$31, %rax
	subl	%r15d, %eax
	movl	%eax, %esi
	sarl	$31, %esi
	andl	%r15d, %esi
	addl	%esi, %eax
	movl	%eax, 12(%rbx)
	leaq	4(%rdx), %rax
	cmpq	%rax, %r11
	jbe	.L160
	movl	16(%rbx), %esi
	movq	%r14, %rax
	imulq	%rcx, %rsi
	imulq	%rsi, %rax
	andl	$2147483647, %eax
	imulq	%rdi, %rax
	addq	%rsi, %rax
	shrq	$31, %rax
	subl	%r15d, %eax
	movl	%eax, %esi
	sarl	$31, %esi
	andl	%r15d, %esi
	addl	%esi, %eax
	movl	%eax, 16(%rbx)
	leaq	5(%rdx), %rax
	cmpq	%rax, %r11
	jbe	.L160
	movl	20(%rbx), %esi
	movq	%r14, %rax
	addq	$6, %rdx
	imulq	%rcx, %rsi
	imulq	%rsi, %rax
	andl	$2147483647, %eax
	imulq	%rdi, %rax
	addq	%rsi, %rax
	shrq	$31, %rax
	subl	%r15d, %eax
	movl	%eax, %esi
	sarl	$31, %esi
	andl	%r15d, %esi
	addl	%esi, %eax
	movl	%eax, 20(%rbx)
	cmpq	%rdx, %r11
	jbe	.L160
	movl	24(%rbx), %edx
	movq	%r14, %rax
	imulq	%rcx, %rdx
	imulq	%rdx, %rax
	andl	$2147483647, %eax
	imulq	%rdi, %rax
	addq	%rdx, %rax
	shrq	$31, %rax
	subl	%r15d, %eax
	cltd
	andl	%r15d, %edx
	addl	%edx, %eax
	movl	%eax, 24(%rbx)
.L160:
	addq	$32, %rsp
	.cfi_remember_state
	.cfi_def_cfa_offset 56
	popq	%rbx
	.cfi_def_cfa_offset 48
	popq	%rbp
	.cfi_def_cfa_offset 40
	popq	%r12
	.cfi_def_cfa_offset 32
	popq	%r13
	.cfi_def_cfa_offset 24
	popq	%r14
	.cfi_def_cfa_offset 16
	popq	%r15
	.cfi_def_cfa_offset 8
	ret
	.p2align 4,,10
	.p2align 3
.L172:
	.cfi_restore_state
	movq	%r9, -24(%rsp)
	movq	-56(%rsp), %r9
	xorl	%edx, %edx
	.p2align 4,,10
	.p2align 3
.L162:
	movl	(%rax,%rdx,4), %ecx
	movl	(%rdi,%rdx,4), %r10d
	leal	(%r10,%rcx), %r8d
	subl	%r10d, %ecx
	subl	%r15d, %r8d
	movl	%r8d, %esi
	sarl	$31, %esi
	andl	%r15d, %esi
	addl	%r8d, %esi
	movl	%esi, (%rax,%rdx,4)
	movl	%ecx, %esi
	sarl	$31, %esi
	andl	%r15d, %esi
	addl	%ecx, %esi
	movl	%esi, %esi
	imulq	%r12, %rsi
	movq	%rsi, %rcx
	imulq	%r14, %rcx
	andl	$2147483647, %ecx
	imulq	%r9, %rcx
	addq	%rsi, %rcx
	shrq	$31, %rcx
	subl	%r15d, %ecx
	movl	%ecx, %esi
	sarl	$31, %esi
	andl	%r15d, %esi
	addl	%esi, %ecx
	movl	%ecx, (%rdi,%rdx,4)
	addq	$1, %rdx
	cmpq	%rdx, %rbp
	jne	.L162
	movq	-24(%rsp), %r9
	jmp	.L167
.L173:
	xorl	%edx, %edx
	jmp	.L169
	.cfi_endproc
.LFE5577:
	.size	modp_iNTT2_ext.part.0.constprop.0, .-modp_iNTT2_ext.part.0.constprop.0
	.p2align 4
	.type	modp_iNTT2_ext.part.0.constprop.1, @function
modp_iNTT2_ext.part.0.constprop.1:
.LFB5576:
	.cfi_startproc
	pushq	%r15
	.cfi_def_cfa_offset 16
	.cfi_offset 15, -16
	movl	$1, %eax
	movl	%r8d, %r15d
	pushq	%r14
	.cfi_def_cfa_offset 24
	.cfi_offset 14, -24
	movq	%r15, %xmm4
	pushq	%r13
	.cfi_def_cfa_offset 32
	.cfi_offset 13, -32
	punpcklqdq	%xmm4, %xmm4
	pushq	%r12
	.cfi_def_cfa_offset 40
	.cfi_offset 12, -40
	movl	%ecx, %r12d
	movl	%edx, %ecx
	movdqa	%xmm4, %xmm8
	pushq	%rbp
	.cfi_def_cfa_offset 48
	.cfi_offset 6, -48
	salq	%cl, %rax
	movq	%r12, %xmm3
	movd	%r12d, %xmm7
	pushq	%rbx
	.cfi_def_cfa_offset 56
	.cfi_offset 3, -56
	punpcklqdq	%xmm3, %xmm3
	pshufd	$0, %xmm7, %xmm2
	movq	%r12, %r14
	movdqa	%xmm3, %xmm6
	psrlq	$32, %xmm8
	psrlq	$32, %xmm6
	subq	$16, %rsp
	.cfi_def_cfa_offset 72
	movdqa	.LC10(%rip), %xmm7
	movq	%rdi, -24(%rsp)
	movq	%rsi, -16(%rsp)
	movl	%edx, 4(%rsp)
	movq	%rax, -8(%rsp)
	movq	%rax, -40(%rsp)
	movq	$1, -32(%rsp)
	.p2align 4,,10
	.p2align 3
.L197:
	movq	-32(%rsp), %rbx
	shrq	-40(%rsp)
	movq	-40(%rsp), %rdx
	movq	%rbx, %rbp
	addq	%rbx, %rbx
	movq	%rbx, -32(%rsp)
	leaq	0(,%rbp,8), %rax
	testq	%rbp, %rbp
	je	.L191
	movq	-16(%rsp), %rsi
	leaq	0(,%rbx,8), %r13
	leaq	28(%rax), %rbx
	movl	$28, %r11d
	movq	%rbx, -112(%rsp)
	leaq	(%rsi,%rdx,4), %rdi
	movq	%rdi, -120(%rsp)
	movq	-24(%rsp), %rdi
	leaq	(%rdi,%rax), %rbx
	leaq	-28(%rdi,%rax), %rax
	movq	%rdi, %r8
	movq	%rbx, -104(%rsp)
	leaq	(%rsi,%rdx,8), %rbx
	leaq	-1(%rbp), %rdx
	movq	%rbx, -96(%rsp)
	movq	%rdx, %rbx
	movq	%rdx, -80(%rsp)
	andq	$-4, %rdx
	shrq	$2, %rbx
	leaq	0(,%rdx,8), %rsi
	movq	%rax, -88(%rsp)
	movq	%rsi, -72(%rsp)
	leaq	1(%rdx), %rsi
	movq	%rsi, -64(%rsp)
	leaq	2(%rdx), %rsi
	addq	$3, %rdx
	movq	%rsi, -56(%rsp)
	movq	%rdx, -48(%rsp)
	.p2align 4,,10
	.p2align 3
.L195:
	movq	-112(%rsp), %rdi
	movq	-88(%rsp), %rdx
	movq	-120(%rsp), %rax
	leaq	-28(%rdi), %rcx
	addq	%r11, %rdx
	cmpq	%r11, %rcx
	leaq	-28(%r11), %rcx
	movl	(%rax), %r9d
	setge	%sil
	cmpq	%rdi, %rcx
	setge	%cl
	orb	%sil, %cl
	je	.L199
	cmpq	$5, -80(%rsp)
	jbe	.L199
	movd	%r9d, %xmm5
	movq	-104(%rsp), %rcx
	movq	%r8, %rax
	xorl	%esi, %esi
	pshufd	$0, %xmm5, %xmm5
	movdqa	%xmm5, %xmm9
	punpckldq	%xmm5, %xmm9
	punpckhdq	%xmm5, %xmm5
	.p2align 4,,10
	.p2align 3
.L193:
	movdqu	(%rax), %xmm0
	addq	$1, %rsi
	addq	$32, %rax
	addq	$32, %rcx
	movdqu	-16(%rax), %xmm1
	movdqu	-32(%rcx), %xmm10
	movdqa	%xmm8, %xmm12
	shufps	$136, %xmm1, %xmm0
	movdqu	-16(%rcx), %xmm1
	shufps	$136, %xmm1, %xmm10
	movdqa	%xmm10, %xmm11
	paddd	%xmm0, %xmm11
	psubd	%xmm10, %xmm0
	psubd	%xmm2, %xmm11
	movdqa	%xmm11, %xmm1
	psrad	$31, %xmm1
	pand	%xmm2, %xmm1
	paddd	%xmm11, %xmm1
	pshufd	$85, %xmm1, %xmm11
	movd	%xmm1, -32(%rax)
	movd	%xmm11, -24(%rax)
	movdqa	%xmm1, %xmm11
	punpckhdq	%xmm1, %xmm11
	pshufd	$255, %xmm1, %xmm1
	movd	%xmm1, -8(%rax)
	movdqa	%xmm0, %xmm1
	psrad	$31, %xmm0
	pand	%xmm2, %xmm0
	movd	%xmm11, -16(%rax)
	paddd	%xmm1, %xmm0
	movdqa	%xmm0, %xmm11
	punpckldq	%xmm0, %xmm11
	punpckhdq	%xmm0, %xmm0
	pmuludq	%xmm9, %xmm11
	pmuludq	%xmm5, %xmm0
	movdqa	%xmm11, %xmm1
	pmuludq	%xmm11, %xmm12
	movdqa	%xmm11, %xmm10
	psrlq	$32, %xmm1
	pmuludq	%xmm4, %xmm10
	pmuludq	%xmm4, %xmm1
	paddq	%xmm12, %xmm1
	psllq	$32, %xmm1
	paddq	%xmm1, %xmm10
	pand	%xmm7, %xmm10
	movdqa	%xmm10, %xmm12
	movdqa	%xmm10, %xmm1
	psrlq	$32, %xmm12
	pmuludq	%xmm6, %xmm10
	pmuludq	%xmm3, %xmm12
	pmuludq	%xmm3, %xmm1
	paddq	%xmm10, %xmm12
	movdqa	%xmm0, %xmm10
	psllq	$32, %xmm12
	pmuludq	%xmm4, %xmm10
	paddq	%xmm12, %xmm1
	movdqa	%xmm8, %xmm12
	paddq	%xmm11, %xmm1
	pmuludq	%xmm0, %xmm12
	movdqa	%xmm0, %xmm11
	psrlq	$32, %xmm11
	psrlq	$31, %xmm1
	pmuludq	%xmm4, %xmm11
	paddq	%xmm12, %xmm11
	psllq	$32, %xmm11
	paddq	%xmm11, %xmm10
	pand	%xmm7, %xmm10
	movdqa	%xmm10, %xmm12
	movdqa	%xmm10, %xmm11
	psrlq	$32, %xmm12
	pmuludq	%xmm6, %xmm10
	pmuludq	%xmm3, %xmm12
	pmuludq	%xmm3, %xmm11
	paddq	%xmm10, %xmm12
	movdqa	%xmm11, %xmm10
	psllq	$32, %xmm12
	paddq	%xmm12, %xmm10
	paddq	%xmm10, %xmm0
	psrlq	$31, %xmm0
	shufps	$136, %xmm0, %xmm1
	movdqa	%xmm1, %xmm0
	psubd	%xmm2, %xmm0
	movdqa	%xmm0, %xmm1
	psrad	$31, %xmm1
	pand	%xmm2, %xmm1
	paddd	%xmm0, %xmm1
	pshufd	$85, %xmm1, %xmm0
	movd	%xmm1, -32(%rcx)
	movd	%xmm0, -24(%rcx)
	movdqa	%xmm1, %xmm0
	punpckhdq	%xmm1, %xmm0
	pshufd	$255, %xmm1, %xmm1
	movd	%xmm0, -16(%rcx)
	movd	%xmm1, -8(%rcx)
	cmpq	%rsi, %rbx
	jne	.L193
	movq	-72(%rsp), %rdi
	leaq	(%r8,%rdi), %rax
	addq	%rdi, %rdx
	movl	(%rax), %esi
	movl	(%rdx), %r10d
	movl	%esi, %ecx
	subl	%r10d, %esi
	subl	%r14d, %ecx
	addl	%r10d, %ecx
	movl	%ecx, %edi
	sarl	$31, %edi
	andl	%r14d, %edi
	addl	%edi, %ecx
	movl	%ecx, (%rax)
	movl	%esi, %ecx
	sarl	$31, %ecx
	andl	%r14d, %ecx
	addl	%ecx, %esi
	movl	%esi, %esi
	imulq	%r9, %rsi
	movq	%rsi, %rcx
	imulq	%r15, %rcx
	andl	$2147483647, %ecx
	imulq	%r12, %rcx
	addq	%rsi, %rcx
	shrq	$31, %rcx
	subl	%r14d, %ecx
	movl	%ecx, %esi
	sarl	$31, %esi
	andl	%r14d, %esi
	addl	%esi, %ecx
	movl	%ecx, (%rdx)
	cmpq	-64(%rsp), %rbp
	jbe	.L196
	movl	8(%rax), %esi
	movl	8(%rdx), %r10d
	movl	%esi, %ecx
	subl	%r10d, %esi
	subl	%r14d, %ecx
	addl	%r10d, %ecx
	movl	%ecx, %edi
	sarl	$31, %edi
	andl	%r14d, %edi
	addl	%edi, %ecx
	movl	%ecx, 8(%rax)
	movl	%esi, %ecx
	sarl	$31, %ecx
	andl	%r14d, %ecx
	addl	%ecx, %esi
	movq	%r15, %rcx
	movl	%esi, %esi
	imulq	%r9, %rsi
	imulq	%rsi, %rcx
	andl	$2147483647, %ecx
	imulq	%r12, %rcx
	addq	%rsi, %rcx
	shrq	$31, %rcx
	subl	%r14d, %ecx
	movl	%ecx, %esi
	sarl	$31, %esi
	andl	%r14d, %esi
	addl	%esi, %ecx
	movl	%ecx, 8(%rdx)
	cmpq	-56(%rsp), %rbp
	jbe	.L196
	movl	16(%rax), %esi
	movl	16(%rdx), %r10d
	movl	%esi, %ecx
	subl	%r10d, %esi
	subl	%r14d, %ecx
	addl	%r10d, %ecx
	movl	%ecx, %edi
	sarl	$31, %edi
	andl	%r14d, %edi
	addl	%edi, %ecx
	movl	%ecx, 16(%rax)
	movl	%esi, %ecx
	sarl	$31, %ecx
	andl	%r14d, %ecx
	addl	%ecx, %esi
	movq	%r15, %rcx
	movl	%esi, %esi
	imulq	%r9, %rsi
	imulq	%rsi, %rcx
	andl	$2147483647, %ecx
	imulq	%r12, %rcx
	addq	%rsi, %rcx
	shrq	$31, %rcx
	subl	%r14d, %ecx
	movl	%ecx, %esi
	sarl	$31, %esi
	andl	%r14d, %esi
	addl	%esi, %ecx
	movl	%ecx, 16(%rdx)
	cmpq	-48(%rsp), %rbp
	jbe	.L196
	movl	24(%rax), %ecx
	movl	24(%rdx), %r10d
	movl	%ecx, %edi
	subl	%r10d, %ecx
	subl	%r14d, %edi
	addl	%r10d, %edi
	movl	%edi, %esi
	sarl	$31, %esi
	andl	%r14d, %esi
	addl	%edi, %esi
	movl	%esi, 24(%rax)
	movl	%ecx, %eax
	sarl	$31, %eax
	andl	%r14d, %eax
	addl	%eax, %ecx
	movl	%ecx, %ecx
	imulq	%r9, %rcx
	movq	%rcx, %rax
	imulq	%r15, %rax
	andl	$2147483647, %eax
	imulq	%r12, %rax
	addq	%rcx, %rax
	shrq	$31, %rax
	subl	%r14d, %eax
	movl	%eax, %ecx
	sarl	$31, %ecx
	andl	%r14d, %ecx
	addl	%eax, %ecx
	movl	%ecx, 24(%rdx)
.L196:
	addq	$4, -120(%rsp)
	addq	%r13, %r11
	movq	-120(%rsp), %rax
	addq	%r13, %r8
	addq	%r13, -112(%rsp)
	addq	%r13, -104(%rsp)
	cmpq	-96(%rsp), %rax
	jne	.L195
.L191:
	cmpq	$1, -40(%rsp)
	jne	.L197
	movzbl	4(%rsp), %ecx
	movl	$-2147483648, %esi
	movq	-8(%rsp), %r8
	xorl	%edx, %edx
	movq	-24(%rsp), %rdi
	shrl	%cl, %esi
	.p2align 4,,10
	.p2align 3
.L198:
	movl	(%rdi,%rdx,8), %ecx
	imulq	%rsi, %rcx
	movq	%rcx, %rax
	imulq	%r15, %rax
	andl	$2147483647, %eax
	imulq	%r12, %rax
	addq	%rcx, %rax
	shrq	$31, %rax
	subl	%r14d, %eax
	movl	%eax, %ecx
	sarl	$31, %ecx
	andl	%r14d, %ecx
	addl	%ecx, %eax
	movl	%eax, (%rdi,%rdx,8)
	addq	$1, %rdx
	cmpq	%rdx, %r8
	jne	.L198
	addq	$16, %rsp
	.cfi_remember_state
	.cfi_def_cfa_offset 56
	popq	%rbx
	.cfi_def_cfa_offset 48
	popq	%rbp
	.cfi_def_cfa_offset 40
	popq	%r12
	.cfi_def_cfa_offset 32
	popq	%r13
	.cfi_def_cfa_offset 24
	popq	%r14
	.cfi_def_cfa_offset 16
	popq	%r15
	.cfi_def_cfa_offset 8
	ret
	.p2align 4,,10
	.p2align 3
.L199:
	.cfi_restore_state
	xorl	%eax, %eax
	.p2align 4,,10
	.p2align 3
.L192:
	movl	(%r8,%rax,8), %ecx
	movl	(%rdx,%rax,8), %edi
	leal	(%rdi,%rcx), %r10d
	subl	%edi, %ecx
	subl	%r14d, %r10d
	movl	%r10d, %esi
	sarl	$31, %esi
	andl	%r14d, %esi
	addl	%r10d, %esi
	movl	%esi, (%r8,%rax,8)
	movl	%ecx, %esi
	sarl	$31, %esi
	andl	%r14d, %esi
	addl	%ecx, %esi
	movl	%esi, %esi
	imulq	%r9, %rsi
	movq	%rsi, %rcx
	imulq	%r15, %rcx
	andl	$2147483647, %ecx
	imulq	%r12, %rcx
	addq	%rsi, %rcx
	shrq	$31, %rcx
	subl	%r14d, %ecx
	movl	%ecx, %esi
	sarl	$31, %esi
	andl	%r14d, %esi
	addl	%esi, %ecx
	movl	%ecx, (%rdx,%rax,8)
	addq	$1, %rax
	cmpq	%rax, %rbp
	jne	.L192
	jmp	.L196
	.cfi_endproc
.LFE5576:
	.size	modp_iNTT2_ext.part.0.constprop.1, .-modp_iNTT2_ext.part.0.constprop.1
	.p2align 4
	.type	zint_rebuild_CRT.constprop.3, @function
zint_rebuild_CRT.constprop.3:
.LFB5579:
	.cfi_startproc
	pushq	%r15
	.cfi_def_cfa_offset 16
	.cfi_offset 15, -16
	movq	%r8, %r9
	movq	%rdi, %r15
	pushq	%r14
	.cfi_def_cfa_offset 24
	.cfi_offset 14, -24
	pushq	%r13
	.cfi_def_cfa_offset 32
	.cfi_offset 13, -32
	pushq	%r12
	.cfi_def_cfa_offset 40
	.cfi_offset 12, -40
	pushq	%rbp
	.cfi_def_cfa_offset 48
	.cfi_offset 6, -48
	pushq	%rbx
	.cfi_def_cfa_offset 56
	.cfi_offset 3, -56
	subq	$72, %rsp
	.cfi_def_cfa_offset 128
	movl	$2147473409, (%r8)
	movq	%rsi, 40(%rsp)
	movq	%rdx, 64(%rsp)
	movq	%rcx, (%rsp)
	cmpq	$1, %rsi
	jbe	.L227
	movq	%rdx, %rax
	movq	%rdi, 48(%rsp)
	leaq	4(%r8), %rbp
	movl	$1, %r14d
	salq	$2, %rax
	movq	%rax, 56(%rsp)
	leaq	12+PRIMES(%rip), %rax
	movq	%rax, 24(%rsp)
	.p2align 4,,10
	.p2align 3
.L226:
	movq	24(%rsp), %rax
	movl	$2, %edx
	leaq	0(,%r14,4), %r15
	movl	(%rax), %r11d
	movl	8(%rax), %r12d
	movl	$2, %eax
	subl	%r11d, %eax
	movl	%r11d, %ecx
	movl	%r11d, %r10d
	movl	%r11d, %edi
	imull	%eax, %ecx
	movq	%r11, %r8
	subl	%ecx, %edx
	movl	%r11d, %ecx
	imull	%edx, %eax
	movl	$2, %edx
	imull	%eax, %ecx
	subl	%ecx, %edx
	movl	%r11d, %ecx
	imull	%edx, %eax
	movl	$2, %edx
	imull	%eax, %ecx
	subl	%ecx, %edx
	imull	%edx, %eax
	imull	%eax, %r10d
	subl	$2, %r10d
	imull	%eax, %r10d
	andl	$2147483647, %r10d
	movl	%r10d, %esi
	call	modp_R2
	cmpq	$0, (%rsp)
	je	.L225
	movl	%r12d, %ebx
	movq	%rbp, 32(%rsp)
	movq	48(%rsp), %rdi
	xorl	%r13d, %r13d
	movq	%rbx, 8(%rsp)
	movl	%eax, %ebx
	leaq	-1(%r14), %rax
	movq	56(%rsp), %r12
	movq	%rax, 16(%rsp)
	.p2align 4,,10
	.p2align 3
.L224:
	movl	(%rdi,%r15), %ebp
	movq	16(%rsp), %rsi
	xorl	%eax, %eax
	.p2align 4,,10
	.p2align 3
.L222:
	imulq	%rbx, %rax
	movq	%rax, %rdx
	imulq	%r10, %rdx
	andl	$2147483647, %edx
	imulq	%r11, %rdx
	addq	%rdx, %rax
	movl	(%rdi,%rsi,4), %edx
	shrq	$31, %rax
	subl	%r8d, %eax
	subl	%r8d, %edx
	movl	%eax, %ecx
	subl	%r8d, %eax
	sarl	$31, %ecx
	andl	%r8d, %ecx
	addl	%ecx, %eax
	addl	%edx, %eax
	sarl	$31, %edx
	andl	%r8d, %edx
	addl	%edx, %eax
	cltd
	andl	%r8d, %edx
	addl	%edx, %eax
	subq	$1, %rsi
	jnb	.L222
	subl	%eax, %ebp
	xorl	%ecx, %ecx
	movl	%ebp, %eax
	sarl	$31, %eax
	andl	%r8d, %eax
	leal	0(%rbp,%rax), %edx
	imulq	8(%rsp), %rdx
	movq	%rdx, %rax
	imulq	%r10, %rax
	andl	$2147483647, %eax
	imulq	%r11, %rax
	addq	%rdx, %rax
	shrq	$31, %rax
	subl	%r8d, %eax
	cltd
	andl	%r8d, %edx
	leal	(%rax,%rdx), %ebp
	xorl	%edx, %edx
	.p2align 4,,10
	.p2align 3
.L223:
	movl	(%r9,%rdx,4), %eax
	movl	(%rdi,%rdx,4), %esi
	imulq	%rbp, %rax
	addq	%rsi, %rcx
	addq	%rcx, %rax
	movl	%eax, %ecx
	shrq	$31, %rax
	andl	$2147483647, %ecx
	movl	%ecx, (%rdi,%rdx,4)
	addq	$1, %rdx
	movl	%eax, %ecx
	cmpq	%r14, %rdx
	jne	.L223
	movl	%eax, (%rdi,%r15)
	addq	$1, %r13
	addq	%r12, %rdi
	cmpq	(%rsp), %r13
	jne	.L224
	movq	32(%rsp), %rbp
.L225:
	movq	%r9, %rdx
	xorl	%ecx, %ecx
	.p2align 4,,10
	.p2align 3
.L221:
	movl	(%rdx), %eax
	addq	$4, %rdx
	imulq	%r11, %rax
	addq	%rcx, %rax
	movl	%eax, %ecx
	shrq	$31, %rax
	andl	$2147483647, %ecx
	movl	%ecx, -4(%rdx)
	movl	%eax, %ecx
	cmpq	%rdx, %rbp
	jne	.L221
	movl	%eax, 0(%rbp)
	addq	$1, %r14
	addq	$4, %rbp
	addq	$12, 24(%rsp)
	cmpq	40(%rsp), %r14
	jne	.L226
	movq	48(%rsp), %r15
.L227:
	movq	64(%rsp), %r11
	movq	40(%rsp), %rax
	xorl	%r8d, %r8d
	movq	(%rsp), %rbp
	salq	$2, %r11
	cmpq	$0, (%rsp)
	leaq	-1(%rax), %r10
	movq	%rax, %rbx
	je	.L216
	.p2align 4,,10
	.p2align 3
.L228:
	movq	%r10, %rdx
	xorl	%esi, %esi
	xorl	%ecx, %ecx
	testq	%rbx, %rbx
	je	.L232
	.p2align 4,,10
	.p2align 3
.L229:
	movl	(%r9,%rdx,4), %r12d
	sall	$30, %ecx
	movl	(%r15,%rdx,4), %eax
	movl	%r12d, %edi
	shrl	%edi
	orl	%ecx, %edi
	movl	%r12d, %ecx
	movl	%edi, %r12d
	andl	$1, %ecx
	subl	%eax, %r12d
	subl	%edi, %eax
	movl	%esi, %edi
	sarl	$31, %r12d
	shrl	$31, %eax
	andl	$1, %edi
	orl	%r12d, %eax
	subl	$1, %edi
	andl	%edi, %eax
	orl	%eax, %esi
	subq	$1, %rdx
	jnb	.L229
	sarl	$31, %esi
	xorl	%edi, %edi
	xorl	%edx, %edx
	.p2align 4,,10
	.p2align 3
.L231:
	movl	(%r15,%rdx,4), %ecx
	movl	%ecx, %eax
	subl	%edi, %eax
	subl	(%r9,%rdx,4), %eax
	movl	%eax, %edi
	andl	$2147483647, %eax
	xorl	%ecx, %eax
	shrl	$31, %edi
	andl	%esi, %eax
	xorl	%eax, %ecx
	movl	%ecx, (%r15,%rdx,4)
	addq	$1, %rdx
	cmpq	%rdx, %rbx
	jne	.L231
.L232:
	addq	$1, %r8
	addq	%r11, %r15
	cmpq	%r8, %rbp
	jne	.L228
.L216:
	addq	$72, %rsp
	.cfi_def_cfa_offset 56
	popq	%rbx
	.cfi_def_cfa_offset 48
	popq	%rbp
	.cfi_def_cfa_offset 40
	popq	%r12
	.cfi_def_cfa_offset 32
	popq	%r13
	.cfi_def_cfa_offset 24
	popq	%r14
	.cfi_def_cfa_offset 16
	popq	%r15
	.cfi_def_cfa_offset 8
	ret
	.cfi_endproc
.LFE5579:
	.size	zint_rebuild_CRT.constprop.3, .-zint_rebuild_CRT.constprop.3
	.p2align 4
	.type	poly_sub_scaled_ntt, @function
poly_sub_scaled_ntt:
.LFB5553:
	.cfi_startproc
	pushq	%r15
	.cfi_def_cfa_offset 16
	.cfi_offset 15, -16
	movq	%r9, %rax
	movl	$4, %r9d
	pushq	%r14
	.cfi_def_cfa_offset 24
	.cfi_offset 14, -24
	pushq	%r13
	.cfi_def_cfa_offset 32
	.cfi_offset 13, -32
	pushq	%r12
	.cfi_def_cfa_offset 40
	.cfi_offset 12, -40
	pushq	%rbp
	.cfi_def_cfa_offset 48
	.cfi_offset 6, -48
	pushq	%rbx
	.cfi_def_cfa_offset 56
	.cfi_offset 3, -56
	subq	$264, %rsp
	.cfi_def_cfa_offset 320
	movq	320(%rsp), %rbx
	movl	344(%rsp), %r15d
	movq	%rcx, 216(%rsp)
	movq	%rdi, 224(%rsp)
	movq	%rbx, 72(%rsp)
	movl	328(%rsp), %ebx
	movl	%r15d, %ecx
	salq	%cl, %r9
	movq	%rdx, 240(%rsp)
	leaq	1(%r8), %rdx
	movl	%ebx, 252(%rsp)
	movl	336(%rsp), %ebx
	movq	%rdx, %r10
	movq	%rsi, 232(%rsp)
	movl	$1, %esi
	movl	%ebx, 248(%rsp)
	movq	352(%rsp), %rbx
	salq	%cl, %rsi
	movq	%rdx, 136(%rsp)
	salq	%cl, %rdx
	movq	%rbx, %rdi
	movq	%r8, 112(%rsp)
	addq	%r9, %rdi
	movl	%r15d, 92(%rsp)
	movq	%rdi, 144(%rsp)
	addq	%r9, %rdi
	movq	%rdi, 104(%rsp)
	leaq	(%rdi,%rdx,4), %rdi
	movq	%rbx, 48(%rsp)
	movq	%rsi, 32(%rsp)
	movq	%r9, 120(%rsp)
	movq	%rdx, 128(%rsp)
	movq	%rdi, 56(%rsp)
	testq	%r10, %r10
	je	.L247
	salq	$2, %rax
	movl	%r8d, %ecx
	leaq	0(,%r10,4), %r15
	movq	$0, 96(%rsp)
	movq	%rax, 40(%rsp)
	leaq	4+PRIMES(%rip), %rax
	subl	$1, %ecx
	movl	$2147473409, %r14d
	movq	%rax, 80(%rsp)
	leaq	-1(%rsi), %rax
	movq	%rax, 200(%rsp)
	leaq	(%r9,%rdx,2), %rax
	addq	%rdi, %r9
	leaq	(%rbx,%rax,2), %rax
	movq	%rsi, %rbx
	shrq	$2, %rsi
	movl	%ecx, 164(%rsp)
	movq	%rax, 184(%rsp)
	movq	%rsi, %rax
	movq	%rbx, %rsi
	leaq	-4(%r15), %rcx
	salq	$4, %rax
	andq	$-4, %rsi
	movq	%rcx, 176(%rsp)
	movq	%rax, 168(%rsp)
	movq	%rsi, 192(%rsp)
	movq	%r9, 208(%rsp)
.L269:
	movl	$2, %edx
	movl	$2, %eax
	movl	%r14d, %edi
	movl	%r14d, %r12d
	subl	%r14d, %edx
	movl	$-2147483648, %ebx
	movl	%edx, %ecx
	subl	%r14d, %ebx
	imull	%r14d, %ecx
	subl	%ecx, %eax
	imull	%eax, %edx
	movl	$2, %eax
	movl	%edx, %ecx
	imull	%r14d, %ecx
	subl	%ecx, %eax
	imull	%edx, %eax
	movl	$2, %edx
	movl	%eax, %ecx
	imull	%r14d, %ecx
	subl	%ecx, %edx
	imull	%edx, %eax
	movl	%eax, %edx
	imull	%r14d, %edx
	subl	$2, %edx
	imull	%edx, %eax
	andl	$2147483647, %eax
	movl	%eax, %r13d
	movl	%r13d, %esi
	movl	%r13d, 160(%rsp)
	call	modp_R2
	movl	164(%rsp), %edi
	movl	%eax, %ebp
	testl	%edi, %edi
	je	.L248
	movl	%eax, %esi
	xorl	%ecx, %ecx
	movl	$1, %edx
	.p2align 4,,10
	.p2align 3
.L250:
	btl	%ecx, %edi
	movl	%esi, %eax
	jnc	.L249
	imulq	%rax, %rbx
	movq	%rbx, %rsi
	imulq	%r13, %rsi
	andl	$2147483647, %esi
	imulq	%r12, %rsi
	addq	%rbx, %rsi
	shrq	$31, %rsi
	subl	%r14d, %esi
	movl	%esi, %ebx
	sarl	$31, %ebx
	andl	%r14d, %ebx
	addl	%esi, %ebx
.L249:
	imulq	%rax, %rax
	addl	$1, %ecx
	movq	%rax, %rsi
	imulq	%r13, %rax
	andl	$2147483647, %eax
	imulq	%r12, %rax
	addq	%rsi, %rax
	shrq	$31, %rax
	subl	%r14d, %eax
	movl	%eax, %esi
	sarl	$31, %esi
	andl	%r14d, %esi
	addl	%eax, %esi
	movl	%edx, %eax
	sall	%cl, %eax
	cmpl	%eax, %edi
	jnb	.L250
.L248:
	movq	80(%rsp), %rax
	movl	92(%rsp), %edx
	movl	%r14d, %r8d
	movl	160(%rsp), %r9d
	movq	144(%rsp), %rsi
	movl	(%rax), %ecx
	movq	48(%rsp), %rdi
	call	modp_mkgm2
	cmpq	$2, 200(%rsp)
	jbe	.L275
	movd	%r14d, %xmm5
	movq	168(%rsp), %rdx
	movq	72(%rsp), %rsi
	xorl	%eax, %eax
	movq	184(%rsp), %rcx
	pshufd	$0, %xmm5, %xmm1
	.p2align 4,,10
	.p2align 3
.L252:
	movdqu	(%rsi,%rax), %xmm0
	movdqu	(%rsi,%rax), %xmm3
	psrad	$31, %xmm0
	pand	%xmm1, %xmm0
	paddd	%xmm3, %xmm0
	movups	%xmm0, (%rcx,%rax)
	addq	$16, %rax
	cmpq	%rdx, %rax
	jne	.L252
	movq	192(%rsp), %rax
	movq	%rax, %rdx
	cmpq	%rax, 32(%rsp)
	je	.L253
.L251:
	movq	32(%rsp), %rax
	subq	%rdx, %rax
	cmpq	$1, %rax
	je	.L254
	movq	72(%rsp), %rdi
	movd	%r14d, %xmm4
	pshufd	$0xe0, %xmm4, %xmm2
	movq	(%rdi,%rdx,4), %xmm1
	movq	128(%rsp), %rdi
	movdqa	%xmm1, %xmm0
	leaq	(%rdi,%rdx), %rcx
	movq	120(%rsp), %rdi
	psrad	$31, %xmm0
	pand	%xmm2, %xmm0
	leaq	(%rdi,%rcx,2), %rcx
	movq	48(%rsp), %rdi
	paddd	%xmm1, %xmm0
	movq	%xmm0, (%rdi,%rcx,2)
	movq	%rax, %rcx
	andq	$-2, %rcx
	addq	%rcx, %rdx
	cmpq	%rax, %rcx
	je	.L253
.L254:
	movq	72(%rsp), %rax
	movq	56(%rsp), %rdi
	movl	(%rax,%rdx,4), %ecx
	movl	%ecx, %eax
	sarl	$31, %eax
	andl	%r14d, %eax
	addl	%ecx, %eax
	movl	%eax, (%rdi,%rdx,4)
.L253:
	movl	92(%rsp), %eax
	testl	%eax, %eax
	je	.L256
	movq	48(%rsp), %rsi
	movq	56(%rsp), %rdi
	movl	%r14d, %ecx
	movl	%eax, %edx
	movl	160(%rsp), %r8d
	call	modp_NTT2_ext.part.0.constprop.0
.L256:
	movq	96(%rsp), %rdi
	movq	104(%rsp), %rax
	movl	%ebp, %r10d
	xorl	%r8d, %r8d
	movq	%r10, 152(%rsp)
	movq	176(%rsp), %rbp
	leaq	(%rax,%rdi,4), %r9
	movq	112(%rsp), %r11
	movq	216(%rsp), %rdi
	movq	%r9, 64(%rsp)
	.p2align 4,,10
	.p2align 3
.L259:
	xorl	%eax, %eax
	testq	%r11, %r11
	je	.L257
	leaq	-1(%r11), %rsi
	.p2align 4,,10
	.p2align 3
.L258:
	imulq	%r10, %rax
	movq	%rax, %rdx
	imulq	%r13, %rdx
	andl	$2147483647, %edx
	imulq	%r12, %rdx
	addq	%rdx, %rax
	movl	(%rdi,%rsi,4), %edx
	shrq	$31, %rax
	subl	%r14d, %eax
	subl	%r14d, %edx
	movl	%eax, %ecx
	subl	%r14d, %eax
	sarl	$31, %ecx
	andl	%r14d, %ecx
	addl	%ecx, %eax
	addl	%edx, %eax
	sarl	$31, %edx
	andl	%r14d, %edx
	addl	%edx, %eax
	cltd
	andl	%r14d, %edx
	addl	%edx, %eax
	subq	$1, %rsi
	jnb	.L258
	movl	-4(%rdi,%rbp), %ecx
	shrl	$30, %ecx
	negl	%ecx
	andl	%ebx, %ecx
	subl	%ecx, %eax
	cltd
	andl	%r14d, %edx
	addl	%edx, %eax
.L257:
	movl	%eax, (%r9)
	addq	$1, %r8
	addq	40(%rsp), %rdi
	addq	%r15, %r9
	cmpq	%r8, 32(%rsp)
	jne	.L259
	movl	92(%rsp), %eax
	movq	32(%rsp), %r11
	movq	$1, 24(%rsp)
	testl	%eax, %eax
	je	.L262
	.p2align 4,,10
	.p2align 3
.L266:
	movq	%r11, %rax
	shrq	%r11
	movq	%r11, %rbx
	imulq	%r15, %rbx
	movq	%rbx, (%rsp)
	testq	%r11, %r11
	je	.L263
	imulq	%r15, %rax
	movq	48(%rsp), %rbx
	movq	24(%rsp), %rdi
	leaq	(%rbx,%rdi,4), %rbp
	movq	%rax, 16(%rsp)
	leaq	(%rbx,%rdi,8), %rax
	movq	64(%rsp), %rbx
	movq	%rax, 8(%rsp)
	.p2align 4,,10
	.p2align 3
.L265:
	movq	(%rsp), %rax
	movl	0(%rbp), %r10d
	movq	%rbx, %rdi
	xorl	%r9d, %r9d
	leaq	(%rax,%rbx), %rsi
	.p2align 4,,10
	.p2align 3
.L264:
	movl	(%rsi), %ecx
	movl	(%rdi), %edx
	addq	$1, %r9
	imulq	%r10, %rcx
	movq	%rcx, %rax
	imulq	%r13, %rax
	andl	$2147483647, %eax
	imulq	%r12, %rax
	addq	%rcx, %rax
	shrq	$31, %rax
	subl	%r14d, %eax
	movl	%eax, %ecx
	sarl	$31, %ecx
	andl	%r14d, %ecx
	addl	%ecx, %eax
	movl	%edx, %ecx
	subl	%r14d, %ecx
	subl	%eax, %edx
	addl	%eax, %ecx
	movl	%edx, %eax
	movl	%ecx, %r8d
	sarl	$31, %eax
	sarl	$31, %r8d
	andl	%r14d, %eax
	andl	%r14d, %r8d
	addl	%eax, %edx
	addl	%r8d, %ecx
	movl	%ecx, (%rdi)
	addq	%r15, %rdi
	movl	%edx, (%rsi)
	addq	%r15, %rsi
	cmpq	%r9, %r11
	jne	.L264
	addq	$4, %rbp
	addq	16(%rsp), %rbx
	cmpq	%rbp, 8(%rsp)
	jne	.L265
.L263:
	salq	24(%rsp)
	movq	24(%rsp), %rax
	cmpq	%rax, 32(%rsp)
	ja	.L266
.L262:
	movq	56(%rsp), %rcx
	movq	64(%rsp), %rdx
	movq	208(%rsp), %rsi
	movq	152(%rsp), %rdi
	.p2align 4,,10
	.p2align 3
.L261:
	movl	(%rdx), %eax
	movl	(%rcx), %r8d
	addq	$4, %rcx
	imulq	%rax, %r8
	movq	%r8, %rax
	imulq	%r13, %rax
	andl	$2147483647, %eax
	imulq	%r12, %rax
	addq	%r8, %rax
	shrq	$31, %rax
	subl	%r14d, %eax
	movl	%eax, %r8d
	sarl	$31, %r8d
	andl	%r14d, %r8d
	addl	%eax, %r8d
	movl	%r8d, %r8d
	imulq	%rdi, %r8
	movq	%r8, %rax
	imulq	%r13, %rax
	andl	$2147483647, %eax
	imulq	%r12, %rax
	addq	%r8, %rax
	shrq	$31, %rax
	subl	%r14d, %eax
	movl	%eax, %r8d
	sarl	$31, %r8d
	andl	%r14d, %r8d
	addl	%r8d, %eax
	movl	%eax, (%rdx)
	addq	%r15, %rdx
	cmpq	%rcx, %rsi
	jne	.L261
	movl	92(%rsp), %eax
	testl	%eax, %eax
	je	.L267
	movl	160(%rsp), %r9d
	movq	64(%rsp), %rdi
	movl	%r14d, %r8d
	movl	%eax, %ecx
	movq	144(%rsp), %rdx
	movq	136(%rsp), %rsi
	call	modp_iNTT2_ext.part.0
.L267:
	movq	96(%rsp), %rdi
	addq	$12, 80(%rsp)
	movq	80(%rsp), %rbx
	leaq	1(%rdi), %rax
	cmpq	%rdi, 112(%rsp)
	je	.L268
	movq	%rax, 96(%rsp)
	movl	-4(%rbx), %r14d
	jmp	.L269
.L275:
	xorl	%edx, %edx
	jmp	.L251
.L268:
	movq	136(%rsp), %rsi
	movq	56(%rsp), %r8
	xorl	%ebp, %ebp
	movq	104(%rsp), %rdi
	movq	32(%rsp), %rcx
	movq	%rsi, %rdx
	call	zint_rebuild_CRT.constprop.3
	movl	252(%rsp), %eax
	movq	224(%rsp), %rbx
	movl	$31, %r11d
	movq	232(%rsp), %rdi
	movq	240(%rsp), %r12
	leaq	(%rbx,%rax,4), %r8
	subl	248(%rsp), %r11d
	movq	%rdi, %rbx
	salq	$2, %r12
	subq	%rax, %rbx
	cmpq	%rax, %rdi
	jbe	.L246
	movq	%r12, (%rsp)
	movq	104(%rsp), %r14
	movq	136(%rsp), %r12
	movl	248(%rsp), %r13d
.L272:
	movl	-4(%r14,%r15), %r10d
	xorl	%eax, %eax
	xorl	%edx, %edx
	xorl	%r9d, %r9d
	movl	%eax, %edi
	shrl	$30, %r10d
	negl	%r10d
	shrl	%r10d
	.p2align 4,,10
	.p2align 3
.L271:
	movl	%r10d, %eax
	cmpq	%rdx, %r12
	jbe	.L270
	movl	(%r14,%rdx,4), %eax
.L270:
	movl	%eax, %esi
	movl	%r13d, %ecx
	sall	%cl, %esi
	movl	%r11d, %ecx
	shrl	%cl, %eax
	andl	$2147483647, %esi
	orl	%r9d, %esi
	movl	%eax, %r9d
	movl	(%r8,%rdx,4), %eax
	subl	%edi, %eax
	subl	%esi, %eax
	movl	%eax, %ecx
	shrl	$31, %eax
	andl	$2147483647, %ecx
	movl	%eax, %edi
	movl	%ecx, (%r8,%rdx,4)
	addq	$1, %rdx
	cmpq	%rdx, %rbx
	jne	.L271
	addq	$1, %rbp
	addq	%r15, %r14
	addq	(%rsp), %r8
	cmpq	%rbp, 32(%rsp)
	jne	.L272
.L246:
	addq	$264, %rsp
	.cfi_remember_state
	.cfi_def_cfa_offset 56
	popq	%rbx
	.cfi_def_cfa_offset 48
	popq	%rbp
	.cfi_def_cfa_offset 40
	popq	%r12
	.cfi_def_cfa_offset 32
	popq	%r13
	.cfi_def_cfa_offset 24
	popq	%r14
	.cfi_def_cfa_offset 16
	popq	%r15
	.cfi_def_cfa_offset 8
	ret
.L247:
	.cfi_restore_state
	movq	%rdi, %r8
	movq	104(%rsp), %rdi
	movq	%rsi, %rcx
	xorl	%edx, %edx
	addq	$264, %rsp
	.cfi_def_cfa_offset 56
	xorl	%esi, %esi
	popq	%rbx
	.cfi_def_cfa_offset 48
	popq	%rbp
	.cfi_def_cfa_offset 40
	popq	%r12
	.cfi_def_cfa_offset 32
	popq	%r13
	.cfi_def_cfa_offset 24
	popq	%r14
	.cfi_def_cfa_offset 16
	popq	%r15
	.cfi_def_cfa_offset 8
	jmp	zint_rebuild_CRT.constprop.3
	.cfi_endproc
.LFE5553:
	.size	poly_sub_scaled_ntt, .-poly_sub_scaled_ntt
	.p2align 4
	.type	zint_co_reduce_mod, @function
zint_co_reduce_mod:
.LFB5545:
	.cfi_startproc
	pushq	%r15
	.cfi_def_cfa_offset 16
	.cfi_offset 15, -16
	movq	%rdx, %r10
	pushq	%r14
	.cfi_def_cfa_offset 24
	.cfi_offset 14, -24
	pushq	%r13
	.cfi_def_cfa_offset 32
	.cfi_offset 13, -32
	pushq	%r12
	.cfi_def_cfa_offset 40
	.cfi_offset 12, -40
	movq	%rcx, %r12
	pushq	%rbp
	.cfi_def_cfa_offset 48
	.cfi_offset 6, -48
	pushq	%rbx
	.cfi_def_cfa_offset 56
	.cfi_offset 3, -56
	movl	(%rdi), %eax
	movl	(%rsi), %edx
	movl	56(%rsp), %ecx
	movl	%eax, %r14d
	imull	64(%rsp), %eax
	imull	%edx, %ecx
	imull	%r9d, %r14d
	imull	72(%rsp), %edx
	addl	%ecx, %r14d
	imull	%r8d, %r14d
	leal	(%rax,%rdx), %r13d
	imull	%r8d, %r13d
	leaq	-4(,%r12,4), %rax
	leaq	(%rdi,%rax), %rdx
	addq	%rsi, %rax
	movq	%rdx, -16(%rsp)
	andl	$2147483647, %r14d
	movq	%rax, -8(%rsp)
	andl	$2147483647, %r13d
	testq	%r12, %r12
	je	.L314
	movq	%rdi, %r11
	movq	%rsi, %rbx
	xorl	%edx, %edx
	xorl	%edi, %edi
	xorl	%esi, %esi
	.p2align 4,,10
	.p2align 3
.L318:
	movl	(%r11,%rsi,4), %eax
	movl	(%rbx,%rsi,4), %ebp
	movq	56(%rsp), %r15
	movl	(%r10,%rsi,4), %r8d
	movq	%rax, %rcx
	imulq	64(%rsp), %rax
	imulq	%rbp, %r15
	imulq	%r9, %rcx
	imulq	72(%rsp), %rbp
	addq	%r15, %rcx
	addq	%rdi, %rcx
	movq	%r8, %rdi
	addq	%rbp, %rax
	imulq	%r14, %rdi
	addq	%rax, %rdx
	imulq	%r13, %r8
	addq	%rcx, %rdi
	addq	%r8, %rdx
	testq	%rsi, %rsi
	je	.L315
	movl	%edi, %eax
	sarq	$31, %rdi
	andl	$2147483647, %eax
	movl	%eax, -4(%r11,%rsi,4)
	movl	%edx, %eax
	sarq	$31, %rdx
	andl	$2147483647, %eax
	movl	%eax, -4(%rbx,%rsi,4)
	addq	$1, %rsi
	cmpq	%rsi, %r12
	jne	.L318
.L317:
	movq	-16(%rsp), %rax
	xorl	%r9d, %r9d
	movl	%edi, (%rax)
	movq	-8(%rsp), %rax
	shrq	$63, %rdi
	movq	%rdi, %rbp
	movl	%edi, %esi
	movl	%edx, (%rax)
	xorl	%eax, %eax
	movl	%eax, %ecx
	.p2align 4,,10
	.p2align 3
.L319:
	movl	(%r11,%r9,4), %eax
	movq	%r9, %r8
	subl	%ecx, %eax
	subl	(%r10,%r9,4), %eax
	leaq	1(%r9), %r9
	shrl	$31, %eax
	movl	%eax, %ecx
	cmpq	%r9, %r12
	jne	.L319
	movl	$1, %edi
	movl	%ebp, %r9d
	xorl	%ecx, %ecx
	subl	%eax, %edi
	negl	%r9d
	movl	%esi, %eax
	orl	%ebp, %edi
	shrl	%r9d
	negl	%edi
	.p2align 4,,10
	.p2align 3
.L321:
	movl	(%r11,%rcx,4), %esi
	subl	%eax, %esi
	movl	(%r10,%rcx,4), %eax
	xorl	%r9d, %eax
	andl	%edi, %eax
	subl	%eax, %esi
	movl	%esi, %eax
	andl	$2147483647, %eax
	movl	%eax, (%r11,%rcx,4)
	movl	%esi, %eax
	movq	%rcx, %rsi
	addq	$1, %rcx
	shrl	$31, %eax
	cmpq	%rsi, %r8
	jne	.L321
	movq	%rdx, %rax
	xorl	%ecx, %ecx
	xorl	%r9d, %r9d
	shrq	$63, %rax
	movl	%ecx, %edx
	movl	%eax, %edi
	.p2align 4,,10
	.p2align 3
.L323:
	movl	(%rbx,%r9,4), %ecx
	subl	%edx, %ecx
	subl	(%r10,%r9,4), %ecx
	movl	%ecx, %edx
	movq	%r9, %rcx
	addq	$1, %r9
	shrl	$31, %edx
	cmpq	%r8, %rcx
	jne	.L323
	movl	%edx, %ecx
	movl	$1, %edx
	movl	%eax, %r9d
	subl	%ecx, %edx
	negl	%r9d
	xorl	%ecx, %ecx
	orl	%eax, %edx
	shrl	%r9d
	movl	%edi, %eax
	negl	%edx
	.p2align 4,,10
	.p2align 3
.L325:
	movl	(%rbx,%rcx,4), %edi
	movq	%rcx, %rsi
	subl	%eax, %edi
	movl	(%r10,%rcx,4), %eax
	xorl	%r9d, %eax
	andl	%edx, %eax
	subl	%eax, %edi
	movl	%edi, %eax
	andl	$2147483647, %eax
	movl	%eax, (%rbx,%rcx,4)
	movl	%edi, %eax
	addq	$1, %rcx
	shrl	$31, %eax
	cmpq	%r8, %rsi
	jne	.L325
	popq	%rbx
	.cfi_remember_state
	.cfi_def_cfa_offset 48
	popq	%rbp
	.cfi_def_cfa_offset 40
	popq	%r12
	.cfi_def_cfa_offset 32
	popq	%r13
	.cfi_def_cfa_offset 24
	popq	%r14
	.cfi_def_cfa_offset 16
	popq	%r15
	.cfi_def_cfa_offset 8
	ret
	.p2align 4,,10
	.p2align 3
.L315:
	.cfi_restore_state
	sarq	$31, %rdi
	sarq	$31, %rdx
	cmpq	$1, %r12
	je	.L317
	movl	$1, %esi
	jmp	.L318
	.p2align 4,,10
	.p2align 3
.L314:
	movq	-8(%rsp), %rax
	movl	$0, (%rdx)
	movl	$0, (%rax)
	popq	%rbx
	.cfi_def_cfa_offset 48
	popq	%rbp
	.cfi_def_cfa_offset 40
	popq	%r12
	.cfi_def_cfa_offset 32
	popq	%r13
	.cfi_def_cfa_offset 24
	popq	%r14
	.cfi_def_cfa_offset 16
	popq	%r15
	.cfi_def_cfa_offset 8
	ret
	.cfi_endproc
.LFE5545:
	.size	zint_co_reduce_mod, .-zint_co_reduce_mod
	.p2align 4
	.type	solve_NTRU_binary_depth1, @function
solve_NTRU_binary_depth1:
.LFB5564:
	.cfi_startproc
	pushq	%r15
	.cfi_def_cfa_offset 16
	.cfi_offset 15, -16
	movl	$1, %eax
	movq	%rcx, %r15
	movl	%edi, %ecx
	pushq	%r14
	.cfi_def_cfa_offset 24
	.cfi_offset 14, -24
	pxor	%xmm10, %xmm10
	pushq	%r13
	.cfi_def_cfa_offset 32
	.cfi_offset 13, -32
	pushq	%r12
	.cfi_def_cfa_offset 40
	.cfi_offset 12, -40
	pushq	%rbp
	.cfi_def_cfa_offset 48
	.cfi_offset 6, -48
	xorl	%ebp, %ebp
	pushq	%rbx
	.cfi_def_cfa_offset 56
	.cfi_offset 3, -56
	movq	%rax, %rbx
	salq	%cl, %rbx
	subq	$1672, %rsp
	.cfi_def_cfa_offset 1728
	movq	%rdx, 344(%rsp)
	leal	-1(%rdi), %edx
	movl	%edx, %ecx
	movq	%rbx, 384(%rsp)
	salq	%cl, %rax
	movl	%edi, 1016(%rsp)
	movq	%rax, 40(%rsp)
	movq	%rax, %rbx
	shrq	%rax
	leaq	0(,%rax,8), %rdi
	movq	%rsi, 408(%rsp)
	movq	%rax, %rsi
	shrq	$3, %rbx
	movq	%rax, 8(%rsp)
	movl	$2, %eax
	leaq	(%r15,%rdi), %r9
	salq	%cl, %rax
	movl	%edx, 36(%rsp)
	leaq	(%r9,%rdi), %r14
	leaq	0(,%rax,4), %rdx
	movq	%rax, 504(%rsp)
	leaq	(%rax,%rsi,2), %rax
	leaq	(%rdi,%rax,4), %rax
	movq	%rdi, 272(%rsp)
	movq	%rax, 96(%rsp)
	movq	%rsi, %rax
	salq	$4, %rsi
	movq	%rsi, 48(%rsp)
	movq	%rdi, %rsi
	leaq	32(%rdi), %rdi
	subq	$1, %rax
	movq	%rdi, 152(%rsp)
	leaq	0(,%rbx,4), %rdi
	movq	%rbx, 160(%rsp)
	salq	$5, %rbx
	movq	%rbx, 176(%rsp)
	leaq	(%r15,%rbx), %rcx
	addq	%r9, %rbx
	movq	%r14, 120(%rsp)
	addq	%rdx, %r14
	movq	%rbx, 112(%rsp)
	leaq	1(%rdi), %rbx
	movq	%r14, 128(%rsp)
	leaq	PRIMES(%rip), %r14
	movq	%rbx, 184(%rsp)
	leaq	2(%rdi), %rbx
	movq	%rax, 232(%rsp)
	leaq	-8(%rdx), %rax
	movq	%rdx, 352(%rsp)
	movq	%r14, 264(%rsp)
	movq	%rdi, 168(%rsp)
	movq	%rcx, 80(%rsp)
	movq	%rbx, 192(%rsp)
	movq	%r14, 64(%rsp)
	movq	%rax, 136(%rsp)
	leaq	-8(%rsi,%rdx), %rax
	movdqa	.LC10(%rip), %xmm8
	movq	%rax, 144(%rsp)
.L341:
	movq	64(%rsp), %rax
	movl	$2, %edx
	movl	(%rax), %r11d
	movl	$2, %eax
	subl	%r11d, %edx
	movl	%r11d, %ecx
	movl	%r11d, %edi
	movq	%r11, %r8
	imull	%edx, %ecx
	subl	%ecx, %eax
	movl	%r11d, %ecx
	imull	%edx, %eax
	movl	$2, %edx
	imull	%eax, %ecx
	subl	%ecx, %edx
	movl	%r11d, %ecx
	imull	%eax, %edx
	movl	$2, %eax
	imull	%edx, %ecx
	subl	%ecx, %eax
	imull	%edx, %eax
	movl	%r11d, %edx
	imull	%eax, %edx
	subl	$2, %edx
	imull	%eax, %edx
	andl	$2147483647, %edx
	movl	%edx, %esi
	movl	%edx, %r10d
	call	modp_R2
	movl	$-2147483648, %ecx
	movl	%r10d, %edx
	movl	%eax, %ebx
	subl	%r11d, %ecx
	imulq	%rbx, %rcx
	movq	%rcx, %rax
	imulq	%rdx, %rax
	andl	$2147483647, %eax
	imulq	%r11, %rax
	addq	%rax, %rcx
	shrq	$31, %rcx
	subl	%r11d, %ecx
	movl	%ecx, %eax
	sarl	$31, %eax
	andl	%r11d, %eax
	addl	%eax, %ecx
	movq	120(%rsp), %rax
	addq	%rbp, %rax
	cmpq	$0, 8(%rsp)
	movq	%rax, 104(%rsp)
	movq	128(%rsp), %rax
	leaq	(%rax,%rbp), %r12
	je	.L346
	movl	%r11d, %r10d
	leal	(%r11,%r11), %eax
	movq	96(%rsp), %r13
	movq	48(%rsp), %r14
	negl	%r10d
	sarl	$31, %r10d
	andl	%r11d, %r10d
	subl	%eax, %r10d
	cmpq	$2, 232(%rsp)
	seta	%al
	cmpq	$16, 136(%rsp)
	seta	%sil
	andl	%esi, %eax
	leaq	-8(%r13), %rsi
	cmpq	$20, %rsi
	seta	%sil
	andl	%esi, %eax
	leaq	-8(%r14), %rsi
	cmpq	$20, %rsi
	seta	%sil
	andl	%esi, %eax
	movq	144(%rsp), %rsi
	addq	%rbp, %rsi
	cmpq	$20, %rsi
	seta	%sil
	testb	%sil, %al
	je	.L433
	leaq	28(%r14), %rax
	cmpq	%rax, 272(%rsp)
	setge	%sil
	cmpq	%r14, 152(%rsp)
	setle	%al
	orb	%sil, %al
	je	.L433
	movd	%r11d, %xmm6
	movq	%rdx, %xmm5
	leaq	(%r14,%r15), %rdi
	xorl	%eax, %eax
	pshufd	$0, %xmm6, %xmm0
	movd	%r10d, %xmm6
	movq	%r11, %xmm4
	movq	160(%rsp), %r14
	pshufd	$0, %xmm6, %xmm12
	movd	%ebx, %xmm6
	punpcklqdq	%xmm5, %xmm5
	pshufd	$0, %xmm6, %xmm1
	punpcklqdq	%xmm4, %xmm4
	movd	%ecx, %xmm6
	movdqa	%xmm1, %xmm9
	pshufd	$0, %xmm6, %xmm11
	movdqa	%xmm5, %xmm7
	punpckldq	%xmm1, %xmm9
	movdqa	%xmm4, %xmm6
	punpckhdq	%xmm1, %xmm1
	leaq	0(%r13,%r15), %rsi
	movaps	%xmm1, 16(%rsp)
	psrlq	$32, %xmm7
	xorl	%r13d, %r13d
	psrlq	$32, %xmm6
	.p2align 4,,10
	.p2align 3
.L344:
	movdqu	16(%r15,%rax), %xmm2
	movdqu	(%r15,%rax), %xmm14
	addq	$1, %r13
	shufps	$221, %xmm2, %xmm14
	movdqa	%xmm14, %xmm2
	psrld	$30, %xmm14
	psubd	%xmm0, %xmm2
	movdqa	%xmm2, %xmm1
	paddd	%xmm12, %xmm2
	psrad	$31, %xmm1
	pand	%xmm0, %xmm1
	paddd	%xmm2, %xmm1
	movdqa	%xmm1, %xmm2
	psrad	$31, %xmm2
	pand	%xmm0, %xmm2
	paddd	%xmm1, %xmm2
	movdqa	%xmm7, %xmm1
	movdqa	%xmm2, %xmm15
	punpckldq	%xmm2, %xmm15
	punpckhdq	%xmm2, %xmm2
	pmuludq	16(%rsp), %xmm2
	pmuludq	%xmm9, %xmm15
	movdqa	%xmm15, %xmm13
	pmuludq	%xmm15, %xmm1
	movdqa	%xmm15, %xmm3
	psrlq	$32, %xmm13
	pmuludq	%xmm5, %xmm3
	pmuludq	%xmm5, %xmm13
	paddq	%xmm1, %xmm13
	psllq	$32, %xmm13
	paddq	%xmm13, %xmm3
	pand	%xmm8, %xmm3
	movdqa	%xmm3, %xmm13
	movdqa	%xmm3, %xmm1
	psrlq	$32, %xmm13
	pmuludq	%xmm6, %xmm3
	pmuludq	%xmm4, %xmm13
	pmuludq	%xmm4, %xmm1
	paddq	%xmm3, %xmm13
	movdqa	%xmm2, %xmm3
	psllq	$32, %xmm13
	pmuludq	%xmm5, %xmm3
	paddq	%xmm13, %xmm1
	movdqa	%xmm2, %xmm13
	paddq	%xmm15, %xmm1
	psrlq	$32, %xmm13
	movdqa	%xmm7, %xmm15
	pmuludq	%xmm2, %xmm15
	pmuludq	%xmm5, %xmm13
	psrlq	$31, %xmm1
	paddq	%xmm15, %xmm13
	psllq	$32, %xmm13
	paddq	%xmm13, %xmm3
	pand	%xmm8, %xmm3
	movdqa	%xmm3, %xmm15
	movdqa	%xmm3, %xmm13
	psrlq	$32, %xmm15
	pmuludq	%xmm6, %xmm3
	pmuludq	%xmm4, %xmm15
	pmuludq	%xmm4, %xmm13
	paddq	%xmm3, %xmm15
	psllq	$32, %xmm15
	paddq	%xmm15, %xmm13
	movdqu	16(%r15,%rax), %xmm15
	paddq	%xmm2, %xmm13
	psrlq	$31, %xmm13
	shufps	$136, %xmm13, %xmm1
	movdqa	%xmm1, %xmm2
	movdqu	(%r15,%rax), %xmm1
	psubd	%xmm0, %xmm2
	shufps	$136, %xmm15, %xmm1
	movdqa	%xmm1, %xmm3
	psubd	%xmm0, %xmm3
	movdqa	%xmm3, %xmm1
	psubd	%xmm0, %xmm3
	psrad	$31, %xmm1
	pand	%xmm0, %xmm1
	paddd	%xmm2, %xmm1
	psrad	$31, %xmm2
	paddd	%xmm3, %xmm1
	pand	%xmm0, %xmm2
	paddd	%xmm2, %xmm1
	movdqa	%xmm10, %xmm2
	psubd	%xmm14, %xmm2
	movdqa	%xmm2, %xmm3
	movdqa	%xmm1, %xmm2
	pand	%xmm11, %xmm3
	psrad	$31, %xmm1
	psubd	%xmm3, %xmm2
	pand	%xmm0, %xmm1
	movdqa	%xmm5, %xmm3
	paddd	%xmm1, %xmm2
	movdqa	%xmm2, %xmm1
	psrad	$31, %xmm1
	pand	%xmm0, %xmm1
	paddd	%xmm2, %xmm1
	pshufd	$85, %xmm1, %xmm2
	movd	%xmm1, (%rdi,%rax)
	movd	%xmm2, 8(%rdi,%rax)
	movdqa	%xmm1, %xmm2
	punpckhdq	%xmm1, %xmm2
	pshufd	$255, %xmm1, %xmm1
	movd	%xmm1, 24(%rdi,%rax)
	movd	%xmm2, 16(%rdi,%rax)
	movdqu	16(%r9,%rax), %xmm2
	movdqu	(%r9,%rax), %xmm14
	shufps	$221, %xmm2, %xmm14
	movdqa	%xmm14, %xmm2
	psrld	$30, %xmm14
	psubd	%xmm0, %xmm2
	movdqa	%xmm2, %xmm1
	paddd	%xmm12, %xmm2
	psrad	$31, %xmm1
	pand	%xmm0, %xmm1
	paddd	%xmm2, %xmm1
	movdqa	%xmm1, %xmm2
	psrad	$31, %xmm2
	pand	%xmm0, %xmm2
	paddd	%xmm1, %xmm2
	movdqa	%xmm7, %xmm1
	movdqa	%xmm2, %xmm15
	punpckldq	%xmm2, %xmm15
	punpckhdq	%xmm2, %xmm2
	pmuludq	16(%rsp), %xmm2
	pmuludq	%xmm9, %xmm15
	pmuludq	%xmm15, %xmm1
	pmuludq	%xmm15, %xmm3
	movdqa	%xmm15, %xmm13
	psrlq	$32, %xmm13
	pmuludq	%xmm5, %xmm13
	paddq	%xmm13, %xmm1
	psllq	$32, %xmm1
	paddq	%xmm1, %xmm3
	pand	%xmm8, %xmm3
	movdqa	%xmm3, %xmm13
	movdqa	%xmm3, %xmm1
	psrlq	$32, %xmm13
	pmuludq	%xmm6, %xmm3
	pmuludq	%xmm4, %xmm13
	pmuludq	%xmm4, %xmm1
	paddq	%xmm3, %xmm13
	movdqa	%xmm5, %xmm3
	psllq	$32, %xmm13
	pmuludq	%xmm2, %xmm3
	paddq	%xmm13, %xmm1
	movdqa	%xmm7, %xmm13
	paddq	%xmm15, %xmm1
	pmuludq	%xmm2, %xmm13
	movdqa	%xmm2, %xmm15
	psrlq	$32, %xmm15
	psrlq	$31, %xmm1
	pmuludq	%xmm5, %xmm15
	paddq	%xmm15, %xmm13
	psllq	$32, %xmm13
	paddq	%xmm13, %xmm3
	pand	%xmm8, %xmm3
	movdqa	%xmm3, %xmm15
	movdqa	%xmm3, %xmm13
	psrlq	$32, %xmm15
	pmuludq	%xmm6, %xmm3
	pmuludq	%xmm4, %xmm15
	pmuludq	%xmm4, %xmm13
	paddq	%xmm3, %xmm15
	movdqu	(%r9,%rax), %xmm3
	psllq	$32, %xmm15
	paddq	%xmm15, %xmm13
	paddq	%xmm2, %xmm13
	psrlq	$31, %xmm13
	shufps	$136, %xmm13, %xmm1
	movdqa	%xmm1, %xmm2
	movdqu	16(%r9,%rax), %xmm1
	psubd	%xmm0, %xmm2
	shufps	$136, %xmm1, %xmm3
	psubd	%xmm0, %xmm3
	movdqa	%xmm3, %xmm1
	psubd	%xmm0, %xmm3
	psrad	$31, %xmm1
	pand	%xmm0, %xmm1
	paddd	%xmm2, %xmm1
	psrad	$31, %xmm2
	paddd	%xmm3, %xmm1
	pand	%xmm0, %xmm2
	movdqa	%xmm10, %xmm3
	paddd	%xmm2, %xmm1
	psubd	%xmm14, %xmm3
	movdqa	%xmm1, %xmm2
	psrad	$31, %xmm1
	pand	%xmm11, %xmm3
	pand	%xmm0, %xmm1
	psubd	%xmm3, %xmm2
	paddd	%xmm1, %xmm2
	movdqa	%xmm2, %xmm1
	psrad	$31, %xmm1
	pand	%xmm0, %xmm1
	paddd	%xmm2, %xmm1
	pshufd	$85, %xmm1, %xmm2
	movd	%xmm1, (%rsi,%rax)
	movd	%xmm2, 8(%rsi,%rax)
	movdqa	%xmm1, %xmm2
	punpckhdq	%xmm1, %xmm2
	pshufd	$255, %xmm1, %xmm1
	movd	%xmm2, 16(%rsi,%rax)
	movd	%xmm1, 24(%rsi,%rax)
	addq	$32, %rax
	cmpq	%r14, %r13
	jne	.L344
	movq	176(%rsp), %rax
	movq	104(%rsp), %rdi
	movq	168(%rsp), %rsi
	addq	%rax, %rdi
	addq	%rax, %r12
	cmpq	%rsi, 8(%rsp)
	je	.L346
	movq	80(%rsp), %rax
	movl	4(%rax), %r14d
	movl	%r14d, %esi
	subl	%r8d, %esi
	movl	%esi, %r13d
	sarl	$31, %r13d
	movl	%r13d, %eax
	movq	%rdx, %r13
	andl	%r8d, %eax
	addl	%esi, %eax
	addl	%r10d, %eax
	movl	%eax, %esi
	sarl	$31, %esi
	andl	%r8d, %esi
	addl	%eax, %esi
	movl	%esi, %esi
	imulq	%rbx, %rsi
	imulq	%rsi, %r13
	movq	%r13, %rax
	andl	$2147483647, %eax
	imulq	%r11, %rax
	addq	%rsi, %rax
	shrq	$31, %rax
	movl	%eax, %esi
	movq	80(%rsp), %rax
	subl	%r8d, %esi
	movl	%esi, %r13d
	movl	(%rax), %esi
	subl	%r8d, %esi
	movl	%esi, %eax
	sarl	$31, %esi
	andl	%r8d, %esi
	subl	%r8d, %eax
	addl	%esi, %eax
	movl	%r13d, %esi
	sarl	$31, %esi
	addl	%r13d, %eax
	andl	%r8d, %esi
	addl	%esi, %eax
	movl	%r14d, %esi
	shrl	$30, %esi
	movl	%eax, %r14d
	sarl	$31, %eax
	negl	%esi
	andl	%r8d, %eax
	andl	%ecx, %esi
	subl	%esi, %r14d
	addl	%r14d, %eax
	movq	112(%rsp), %r14
	movl	%eax, %esi
	sarl	$31, %esi
	andl	%r8d, %esi
	addl	%esi, %eax
	movl	%eax, (%rdi)
	movl	4(%r14), %r14d
	movl	%r14d, %esi
	subl	%r8d, %esi
	movl	%esi, %r13d
	sarl	$31, %r13d
	movl	%r13d, %eax
	movq	%rdx, %r13
	andl	%r8d, %eax
	addl	%esi, %eax
	addl	%r10d, %eax
	movl	%eax, %esi
	sarl	$31, %esi
	andl	%r8d, %esi
	addl	%eax, %esi
	movl	%esi, %esi
	imulq	%rbx, %rsi
	imulq	%rsi, %r13
	movq	%r13, %rax
	andl	$2147483647, %eax
	imulq	%r11, %rax
	addq	%rsi, %rax
	movq	112(%rsp), %rsi
	shrq	$31, %rax
	movl	(%rsi), %esi
	movl	%eax, %r13d
	subl	%r8d, %r13d
	movl	%esi, 16(%rsp)
	subl	%r8d, %esi
	movl	%esi, %eax
	sarl	$31, %esi
	andl	%r8d, %esi
	subl	%r8d, %eax
	addl	%esi, %eax
	movl	%r13d, %esi
	sarl	$31, %esi
	addl	%r13d, %eax
	andl	%r8d, %esi
	addl	%esi, %eax
	movl	%r14d, %esi
	shrl	$30, %esi
	movl	%eax, %r13d
	sarl	$31, %eax
	negl	%esi
	andl	%r8d, %eax
	andl	%ecx, %esi
	subl	%esi, %r13d
	addl	%r13d, %eax
	movl	%eax, %esi
	sarl	$31, %esi
	andl	%r8d, %esi
	addl	%esi, %eax
	movq	184(%rsp), %rsi
	movl	%eax, (%r12)
	cmpq	%rsi, 8(%rsp)
	jbe	.L346
	movq	80(%rsp), %rax
	movl	12(%rax), %r14d
	movl	%r14d, %esi
	subl	%r8d, %esi
	movl	%esi, %r13d
	sarl	$31, %r13d
	movl	%r13d, %eax
	movq	%rdx, %r13
	andl	%r8d, %eax
	addl	%esi, %eax
	addl	%r10d, %eax
	movl	%eax, %esi
	sarl	$31, %esi
	andl	%r8d, %esi
	addl	%eax, %esi
	movl	%esi, %esi
	imulq	%rbx, %rsi
	imulq	%rsi, %r13
	movq	%r13, %rax
	andl	$2147483647, %eax
	imulq	%r11, %rax
	addq	%rsi, %rax
	shrq	$31, %rax
	movl	%eax, %r13d
	movq	80(%rsp), %rax
	subl	%r8d, %r13d
	movl	8(%rax), %esi
	subl	%r8d, %esi
	movl	%esi, %eax
	sarl	$31, %esi
	andl	%r8d, %esi
	subl	%r8d, %eax
	addl	%esi, %eax
	movl	%r13d, %esi
	sarl	$31, %esi
	addl	%r13d, %eax
	andl	%r8d, %esi
	addl	%esi, %eax
	movl	%r14d, %esi
	movq	112(%rsp), %r14
	shrl	$30, %esi
	movl	%eax, %r13d
	sarl	$31, %eax
	negl	%esi
	andl	%r8d, %eax
	andl	%ecx, %esi
	subl	%esi, %r13d
	addl	%r13d, %eax
	movl	%eax, %esi
	sarl	$31, %esi
	andl	%r8d, %esi
	addl	%esi, %eax
	movl	%eax, 8(%rdi)
	movl	12(%r14), %r14d
	movl	%r14d, %esi
	subl	%r8d, %esi
	movl	%esi, %r13d
	sarl	$31, %r13d
	movl	%r13d, %eax
	movq	%rdx, %r13
	andl	%r8d, %eax
	addl	%esi, %eax
	addl	%r10d, %eax
	movl	%eax, %esi
	sarl	$31, %esi
	andl	%r8d, %esi
	addl	%eax, %esi
	movl	%esi, %esi
	imulq	%rbx, %rsi
	imulq	%rsi, %r13
	movq	%r13, %rax
	andl	$2147483647, %eax
	imulq	%r11, %rax
	addq	%rsi, %rax
	movq	112(%rsp), %rsi
	shrq	$31, %rax
	movl	8(%rsi), %esi
	movl	%eax, %r13d
	subl	%r8d, %r13d
	movl	%esi, 16(%rsp)
	subl	%r8d, %esi
	movl	%esi, %eax
	sarl	$31, %esi
	andl	%r8d, %esi
	subl	%r8d, %eax
	addl	%esi, %eax
	movl	%r13d, %esi
	sarl	$31, %esi
	addl	%r13d, %eax
	andl	%r8d, %esi
	addl	%esi, %eax
	movl	%r14d, %esi
	shrl	$30, %esi
	movl	%eax, %r13d
	sarl	$31, %eax
	negl	%esi
	andl	%r8d, %eax
	andl	%ecx, %esi
	subl	%esi, %r13d
	addl	%r13d, %eax
	movl	%eax, %esi
	sarl	$31, %esi
	andl	%r8d, %esi
	addl	%esi, %eax
	movq	192(%rsp), %rsi
	movl	%eax, 8(%r12)
	cmpq	%rsi, 8(%rsp)
	jbe	.L346
	movq	80(%rsp), %rax
	movl	20(%rax), %r14d
	movl	%r14d, %r13d
	subl	%r8d, %r13d
	movl	%r13d, %esi
	sarl	$31, %r13d
	movl	%r13d, %eax
	andl	%r8d, %eax
	addl	%esi, %eax
	addl	%r10d, %eax
	movl	%eax, %r13d
	sarl	$31, %r13d
	movl	%r13d, %esi
	movq	%rdx, %r13
	andl	%r8d, %esi
	addl	%eax, %esi
	movl	%esi, %esi
	imulq	%rbx, %rsi
	imulq	%rsi, %r13
	movq	%r13, %rax
	andl	$2147483647, %eax
	imulq	%r11, %rax
	addq	%rsi, %rax
	shrq	$31, %rax
	movl	%eax, %r13d
	movq	80(%rsp), %rax
	subl	%r8d, %r13d
	movl	16(%rax), %eax
	subl	%r8d, %eax
	movl	%eax, %esi
	subl	%r8d, %eax
	sarl	$31, %esi
	andl	%r8d, %esi
	addl	%esi, %eax
	addl	%r13d, %eax
	sarl	$31, %r13d
	movl	%r13d, %esi
	movl	%r14d, %r13d
	movq	112(%rsp), %r14
	andl	%r8d, %esi
	shrl	$30, %r13d
	addl	%esi, %eax
	movl	%r13d, %esi
	negl	%esi
	movl	%eax, %r13d
	sarl	$31, %eax
	andl	%ecx, %esi
	andl	%r8d, %eax
	subl	%esi, %r13d
	addl	%r13d, %eax
	movl	%eax, %r13d
	sarl	$31, %r13d
	movl	%r13d, %esi
	andl	%r8d, %esi
	addl	%esi, %eax
	movl	%eax, 16(%rdi)
	movl	20(%r14), %edi
	movl	%edi, %esi
	subl	%r8d, %esi
	movl	%esi, %eax
	sarl	$31, %eax
	andl	%r8d, %eax
	addl	%esi, %eax
	addl	%r10d, %eax
	movl	%eax, %esi
	sarl	$31, %esi
	andl	%r8d, %esi
	addl	%esi, %eax
	movl	%eax, %eax
	imulq	%rbx, %rax
	imulq	%rax, %rdx
	andl	$2147483647, %edx
	imulq	%r11, %rdx
	addq	%rax, %rdx
	movq	%rdx, %rax
	shrq	$31, %rax
	movl	%eax, %esi
	movl	16(%r14), %eax
	subl	%r8d, %esi
	movl	%eax, %edx
	movl	%eax, 16(%rsp)
	subl	%r8d, %edx
	movl	%edx, %eax
	subl	%r8d, %edx
	sarl	$31, %eax
	andl	%r8d, %eax
	addl	%edx, %eax
	addl	%esi, %eax
	sarl	$31, %esi
	movl	%esi, %edx
	andl	%r8d, %edx
	addl	%eax, %edx
	movl	%edi, %eax
	shrl	$30, %eax
	negl	%eax
	andl	%ecx, %eax
	movl	%edx, %ecx
	subl	%eax, %ecx
	movl	%edx, %eax
	sarl	$31, %eax
	andl	%r8d, %eax
	addl	%ecx, %eax
	cltd
	andl	%r8d, %edx
	addl	%edx, %eax
	movl	%eax, 16(%r12)
.L346:
	addq	$4, %rbp
	addq	$12, 64(%rsp)
	addq	$4, 96(%rsp)
	addq	$4, 48(%rsp)
	cmpq	$8, %rbp
	jne	.L341
	movq	352(%rsp), %r14
	movq	120(%rsp), %rsi
	movq	%r15, %rdi
	movq	%rbp, 104(%rsp)
	movq	%r14, %rdx
	call	memmove@PLT
	leaq	(%r15,%r14), %rax
	movq	128(%rsp), %rsi
	movq	%r14, %rdx
	movq	%rax, %rdi
	movq	%rax, 328(%rsp)
	call	memmove@PLT
	movzbl	36(%rsp), %ecx
	movl	$4, %r8d
	movl	1016(%rsp), %r11d
	addq	%r14, %rax
	movq	8(%rsp), %rdi
	movq	%r14, 352(%rsp)
	salq	%cl, %r8
	movq	%rax, 240(%rsp)
	movl	%r11d, %ecx
	subl	$2, %r11d
	addq	%r8, %rax
	movl	%r11d, 176(%rsp)
	salq	$2, %rdi
	movq	504(%rsp), %r11
	movq	%rax, 512(%rsp)
	addq	%r8, %rax
	movq	%r8, %r14
	movq	384(%rsp), %rdx
	movq	%rax, %r12
	movl	$4, %eax
	salq	$3, %r11
	movq	%r14, %r13
	salq	%cl, %rax
	leaq	(%r12,%r8), %rcx
	movq	%rdi, 360(%rsp)
	movq	344(%rsp), %r10
	leaq	(%r12,%rax), %r9
	movq	%rcx, 208(%rsp)
	addq	%r8, %rcx
	movq	408(%rsp), %rbp
	movq	%r9, 280(%rsp)
	addq	%r8, %r9
	addq	%rdx, %r10
	leaq	(%r9,%rax), %rbx
	movq	%rcx, 120(%rsp)
	movq	%rbx, 64(%rsp)
	movq	%rcx, %rbx
	addq	%r8, %rbx
	movq	%r9, 216(%rsp)
	movq	%r10, %r9
	movq	%rbx, %rsi
	movq	%rbx, 128(%rsp)
	addq	%r8, %rsi
	addq	%r11, %r8
	movq	%r11, 472(%rsp)
	movq	%rsi, %rbx
	movq	%rsi, 152(%rsp)
	addq	%rdi, %rbx
	leaq	(%r14,%rax), %rdi
	movq	%r14, 248(%rsp)
	movq	%rbx, 160(%rsp)
	movq	%r8, %rbx
	movq	%rbp, %r8
	addq	%rbx, %r13
	addq	%rdx, %r8
	movq	%rbx, 480(%rsp)
	addq	%r13, %rdi
	leaq	(%rax,%rdi), %rsi
	leaq	(%r15,%rdi), %r14
	leaq	(%rax,%rsi), %rcx
	leaq	(%r15,%rsi), %rbx
	leaq	(%r15,%rcx), %r10
	leaq	-1(%rdx), %rcx
	cmpq	$14, %rcx
	seta	%cl
	subq	$4, %rax
	cmpq	$56, %rax
	movl	%ecx, %r11d
	seta	%al
	andl	%eax, %r11d
	cmpq	%r14, %r8
	setbe	%al
	cmpq	%rbx, %rbp
	setnb	%cl
	orl	%ecx, %eax
	andl	%eax, %r11d
	cmpq	%rbx, 344(%rsp)
	setnb	%al
	cmpq	%r9, %r14
	setnb	%cl
	orl	%ecx, %eax
	andl	%eax, %r11d
	cmpq	%rbx, %r8
	setbe	%al
	cmpq	%r10, %rbp
	setnb	%cl
	orl	%ecx, %eax
	andl	%eax, %r11d
	cmpq	%r9, %rbx
	movq	344(%rsp), %r9
	setnb	%al
	cmpq	%r10, %r9
	movl	%r11d, %r10d
	movq	%rbp, %r11
	movq	%r9, %r8
	setnb	%cl
	orl	%ecx, %eax
	andl	%eax, %r10d
	movq	%rbp, %rax
	movb	%r10b, 1021(%rsp)
	movq	%rdx, %r10
	movq	216(%rsp), %rdx
	andq	$-16, %r10
	addq	%r10, %rax
	movq	%r10, %rcx
	movq	%r10, 640(%rsp)
	movq	%rax, 672(%rsp)
	movq	%r10, %rax
	salq	$2, %rax
	leaq	(%rdx,%rax), %r10
	movq	64(%rsp), %rdx
	movq	%r10, 680(%rsp)
	movq	%r9, %r10
	addq	%rcx, %r10
	movq	%r10, 688(%rsp)
	leaq	(%rdx,%rax), %r10
	movq	%r10, 696(%rsp)
	movq	%rcx, %r10
	movq	216(%rsp), %r9
	addq	$1, %r10
	movq	%rcx, 96(%rsp)
	leaq	4(%rax), %rcx
	movq	%r10, %rbp
	movq	%r10, 704(%rsp)
	movq	%r11, %r10
	addq	%rbp, %r10
	movq	%r10, 712(%rsp)
	leaq	(%r9,%rcx), %r10
	movq	%r10, 720(%rsp)
	movq	%r8, %r10
	addq	%rbp, %r10
	movq	%r10, 728(%rsp)
	movq	%rcx, %r10
	leaq	8(%rax), %rcx
	addq	%rdx, %r10
	movq	%r10, 736(%rsp)
	movq	96(%rsp), %r10
	addq	$2, %r10
	movq	%r10, %rbp
	movq	%r10, 744(%rsp)
	movq	%r11, %r10
	addq	%rbp, %r10
	movq	%r10, 1168(%rsp)
	leaq	(%r9,%rcx), %r10
	movq	%r10, 1176(%rsp)
	movq	%r8, %r10
	addq	%rbp, %r10
	movq	%r10, 1184(%rsp)
	movq	%rcx, %r10
	leaq	12(%rax), %rcx
	addq	%rdx, %r10
	movq	%r10, 1192(%rsp)
	movq	96(%rsp), %r10
	addq	$3, %r10
	movq	%r10, %rbp
	movq	%r10, 1200(%rsp)
	movq	%r11, %r10
	addq	%rbp, %r10
	movq	%r10, 1208(%rsp)
	leaq	(%r9,%rcx), %r10
	movq	%r10, 1216(%rsp)
	movq	%r8, %r10
	addq	%rbp, %r10
	movq	%r10, 1224(%rsp)
	movq	%rcx, %r10
	addq	%rdx, %r10
	movq	%r10, 1232(%rsp)
	movq	96(%rsp), %r10
	leaq	4(%r10), %rcx
	movq	%r11, %r10
	addq	%rcx, %r10
	movq	%rcx, %rbp
	movq	%rcx, 1240(%rsp)
	leaq	16(%rax), %rcx
	movq	%r10, 1248(%rsp)
	leaq	(%r9,%rcx), %r10
	addq	%rdx, %rcx
	movq	%r10, 1256(%rsp)
	movq	%r8, %r10
	addq	%rbp, %r10
	movq	%rcx, 1272(%rsp)
	movq	%r10, 1264(%rsp)
	movq	96(%rsp), %r10
	leaq	5(%r10), %rcx
	movq	%r11, %r10
	addq	%rcx, %r10
	movq	%rcx, %rbp
	movq	%rcx, 1280(%rsp)
	leaq	20(%rax), %rcx
	movq	%r10, 1288(%rsp)
	leaq	(%r9,%rcx), %r10
	addq	%rdx, %rcx
	movq	%r10, 1296(%rsp)
	movq	%r8, %r10
	addq	%rbp, %r10
	movq	%rcx, 1312(%rsp)
	movq	%r10, 1304(%rsp)
	movq	96(%rsp), %r10
	leaq	6(%r10), %rcx
	movq	%r11, %r10
	movq	%rcx, 1320(%rsp)
	addq	%rcx, %r10
	movq	%rcx, %rbp
	leaq	24(%rax), %rcx
	movq	%r10, 1328(%rsp)
	leaq	(%r9,%rcx), %r10
	addq	%rdx, %rcx
	movq	%r10, 1336(%rsp)
	movq	%r8, %r10
	addq	%rbp, %r10
	movq	%rcx, 1352(%rsp)
	movq	%r10, 1344(%rsp)
	movq	96(%rsp), %r10
	leaq	7(%r10), %rcx
	movq	%r11, %r10
	addq	%rcx, %r10
	movq	%rcx, %rbp
	movq	%rcx, 1360(%rsp)
	leaq	28(%rax), %rcx
	movq	%r10, 1368(%rsp)
	leaq	(%r9,%rcx), %r10
	addq	%rdx, %rcx
	movq	%r10, 1376(%rsp)
	movq	%r8, %r10
	addq	%rbp, %r10
	movq	%rcx, 1392(%rsp)
	movq	%r10, 1384(%rsp)
	movq	96(%rsp), %r10
	leaq	8(%r10), %rcx
	movq	%r11, %r10
	addq	%rcx, %r10
	movq	%rcx, %rbp
	movq	%rcx, 1400(%rsp)
	leaq	32(%rax), %rcx
	movq	%r10, 1408(%rsp)
	leaq	(%r9,%rcx), %r10
	movq	%r10, 1416(%rsp)
	movq	%r8, %r10
	addq	%rbp, %r10
	addq	%rdx, %rcx
	movq	%r10, 1424(%rsp)
	movq	96(%rsp), %r10
	movq	%rcx, 1432(%rsp)
	leaq	9(%r10), %rcx
	movq	%r11, %r10
	addq	%rcx, %r10
	movq	%rcx, %rbp
	movq	%rcx, 1440(%rsp)
	leaq	36(%rax), %rcx
	movq	%r10, 1448(%rsp)
	leaq	(%r9,%rcx), %r10
	addq	%rdx, %rcx
	movq	%r10, 1456(%rsp)
	movq	%r8, %r10
	addq	%rbp, %r10
	movq	%rcx, 1472(%rsp)
	movq	%r10, 1464(%rsp)
	movq	96(%rsp), %r10
	leaq	10(%r10), %rcx
	movq	%r11, %r10
	addq	%rcx, %r10
	movq	%rcx, %rbp
	movq	%rcx, 1480(%rsp)
	leaq	40(%rax), %rcx
	movq	%r10, 1488(%rsp)
	leaq	(%r9,%rcx), %r10
	addq	%rdx, %rcx
	movq	%r10, 1496(%rsp)
	movq	%r8, %r10
	addq	%rbp, %r10
	movq	%rcx, 1512(%rsp)
	leaq	44(%rax), %rcx
	movq	%r10, 1504(%rsp)
	movq	96(%rsp), %r10
	leaq	11(%r10), %rdx
	movq	%r11, %r10
	addq	%rdx, %r10
	movq	%rdx, %rbp
	movq	%rdx, 1520(%rsp)
	movq	%r9, %rdx
	movq	%r10, 1528(%rsp)
	movq	%r8, %r10
	addq	%rcx, %rdx
	addq	%rbp, %r10
	movq	%rdx, 1536(%rsp)
	movq	%r10, 1544(%rsp)
	movq	64(%rsp), %rdx
	movq	96(%rsp), %r10
	addq	%rcx, %rdx
	leaq	48(%rax), %rcx
	movq	%rdx, 1552(%rsp)
	leaq	12(%r10), %rdx
	movq	%r11, %r10
	addq	%rdx, %r10
	movq	%rdx, %rbp
	movq	%rdx, 1560(%rsp)
	movq	%r9, %rdx
	addq	%rcx, %rdx
	movq	%r10, 1568(%rsp)
	movq	%r8, %r10
	addq	%rbp, %r10
	movq	%rdx, 1576(%rsp)
	movq	64(%rsp), %rdx
	movq	%r10, 1584(%rsp)
	movq	96(%rsp), %r10
	addq	%rcx, %rdx
	leaq	52(%rax), %rcx
	addq	$56, %rax
	movq	%rdx, 1592(%rsp)
	leaq	13(%r10), %rdx
	movq	%r11, %r10
	addq	%rdx, %r10
	movq	%rdx, %rbp
	movq	%rdx, 1600(%rsp)
	movq	%r9, %rdx
	movq	%r10, 1608(%rsp)
	movq	%r8, %r10
	addq	%rbp, %r8
	addq	%rcx, %rdx
	movq	%r8, 1624(%rsp)
	movq	64(%rsp), %r8
	movq	%rdx, 1616(%rsp)
	movq	%rcx, %rdx
	addq	%r8, %rdx
	movq	%rdx, 1632(%rsp)
	movq	96(%rsp), %rdx
	addq	$14, %rdx
	movq	%rdx, %rcx
	addq	%rdx, %r11
	movq	%rdx, 1640(%rsp)
	movq	%r9, %rdx
	addq	%rcx, %r10
	addq	%rax, %rdx
	movzbl	36(%rsp), %ecx
	movq	%r11, 1080(%rsp)
	movq	%r10, 1096(%rsp)
	movq	%rax, %r10
	movq	104(%rsp), %r11
	addq	%r8, %r10
	movq	%rdx, 1088(%rsp)
	movq	%r10, 1104(%rsp)
	movq	40(%rsp), %r10
	leaq	-1(%r10), %rdx
	cmpq	$10, %rdx
	movq	%rdx, 368(%rsp)
	seta	16(%rsp)
	salq	%cl, %r11
	movzbl	16(%rsp), %edx
	leaq	(%r11,%rdi), %rax
	movq	%r11, %r8
	movq	248(%rsp), %r11
	leaq	(%r11,%rdi), %rcx
	cmpq	%rcx, %rax
	cmovg	%rcx, %rax
	cmpq	%rax, %rdi
	setge	%al
	movl	%eax, %r11d
	movq	%r9, %rax
	andl	%edx, %r11d
	movb	%r11b, 1022(%rsp)
	movq	%r10, %r11
	shrq	$2, %r10
	andq	$-4, %r11
	movq	%r10, 632(%rsp)
	salq	$4, %r10
	leaq	0(,%r11,8), %rdx
	movq	%r10, 336(%rsp)
	movq	%r11, %r10
	movq	%r11, 184(%rsp)
	movq	%r9, %r11
	leaq	4(%rdx), %rdi
	leaq	8(%rdx), %rcx
	addq	%rdx, %r11
	movq	%rdx, 496(%rsp)
	movq	%r11, 1120(%rsp)
	leaq	(%r9,%rdi), %r11
	movq	%r11, 1128(%rsp)
	leaq	0(,%r10,4), %r11
	movq	%r11, %rbp
	movq	%r9, %r11
	addq	%rbp, %r11
	movq	%rbp, 376(%rsp)
	movq	%r11, 1136(%rsp)
	movq	%r10, %r11
	leaq	1(%r10), %r10
	movq	%r10, 416(%rsp)
	leaq	(%r9,%rcx), %r10
	leaq	12(%rdx), %r9
	movq	%r10, 1144(%rsp)
	leaq	(%rax,%r9), %r10
	movq	%r10, 1152(%rsp)
	movq	%rbp, %r10
	addq	$4, %r10
	leaq	(%rax,%r10), %rbp
	movq	%rbp, 1160(%rsp)
	leaq	2(%r11), %rbp
	leaq	16(%rdx), %r11
	addq	$20, %rdx
	movq	%rbp, 664(%rsp)
	leaq	(%rax,%r11), %rbp
	movq	%rbp, 1048(%rsp)
	movq	%rdx, %rbp
	movq	%rax, %rdx
	addq	%rbp, %rdx
	movq	%rbp, 48(%rsp)
	movq	248(%rsp), %rbp
	movq	%rdx, 1056(%rsp)
	movq	376(%rsp), %rdx
	addq	$8, %rdx
	addq	%rdx, %rax
	movq	%rdx, 80(%rsp)
	movq	496(%rsp), %rdx
	movq	%rax, 1064(%rsp)
	leaq	(%r8,%rsi), %rax
	movq	%rbp, %r8
	addq	%rsi, %r8
	cmpq	%r8, %rax
	cmovg	%r8, %rax
	movq	%rbp, %r8
	cmpq	%rax, %rsi
	setge	%al
	andb	16(%rsp), %al
	movb	%al, 1023(%rsp)
	movq	64(%rsp), %rax
	addq	%rax, %rdx
	addq	%rax, %r10
	addq	%rax, %r9
	addq	%rax, %r11
	movq	%rdx, 960(%rsp)
	movq	%rdi, %rdx
	addq	%rax, %rdx
	movq	%r10, 1112(%rsp)
	movq	48(%rsp), %r10
	movq	%rdx, 968(%rsp)
	movq	376(%rsp), %rdx
	addq	%rax, %r10
	movq	%r9, 992(%rsp)
	addq	%rax, %rdx
	movq	%r11, 1024(%rsp)
	leaq	0(,%rbp,4), %r11
	movq	%rdx, 976(%rsp)
	movq	%rcx, %rdx
	addq	%rax, %rdx
	movq	%r10, 1032(%rsp)
	movq	%r13, %r10
	movq	%rdx, 984(%rsp)
	movq	80(%rsp), %rdx
	addq	%r11, %r10
	leaq	(%r15,%r10), %rbp
	addq	%rax, %rdx
	movq	%rdx, 1040(%rsp)
	movq	360(%rsp), %rdx
	movq	%r11, 488(%rsp)
	movq	160(%rsp), %rdi
	movq	%rdx, %rax
	movq	%rdx, %r11
	movq	%rbp, 616(%rsp)
	addq	%r10, %rax
	movq	%r10, 448(%rsp)
	addq	%rax, %r11
	movq	%rax, 456(%rsp)
	addq	%r15, %rax
	movq	%r11, 464(%rsp)
	movq	232(%rsp), %r11
	movq	%rax, 624(%rsp)
	movq	%r11, %rax
	shrq	$2, %rax
	salq	$4, %rax
	movq	%rax, 648(%rsp)
	movq	%r11, %rax
	movq	152(%rsp), %r11
	andq	$-4, %rax
	movq	%rax, %rcx
	leaq	0(,%rax,8), %rbp
	leaq	0(,%rax,4), %rax
	movq	%rbp, 608(%rsp)
	leaq	(%r11,%rax), %rbp
	leaq	4(%rax), %rsi
	movq	%rbp, 584(%rsp)
	leaq	(%rdi,%rax), %rbp
	movq	%rbp, 592(%rsp)
	leaq	1(%rcx), %rbp
	movq	%rbp, 600(%rsp)
	leaq	(%r11,%rsi), %rbp
	addq	%rdi, %rsi
	movq	%rsi, 576(%rsp)
	leaq	8(%rax), %rsi
	addq	$12, %rax
	movq	%rax, %r13
	movq	%rbp, 568(%rsp)
	leaq	2(%rcx), %rbp
	addq	%rdi, %r13
	movq	%rbp, 520(%rsp)
	leaq	(%r11,%rsi), %rbp
	addq	%rdi, %rsi
	movq	%r13, 1008(%rsp)
	leaq	(%r8,%r8), %r13
	subq	%r13, %r10
	movq	%rbp, 760(%rsp)
	leaq	3(%rcx), %rbp
	movq	8(%rsp), %rcx
	movq	%rbp, 752(%rsp)
	leaq	(%r11,%rax), %rbp
	movq	%r8, %rax
	addq	%r10, %r8
	movq	%r10, %r9
	movq	%rsi, 928(%rsp)
	movq	%r11, %rsi
	movq	%rax, %r11
	movq	%r10, 320(%rsp)
	movq	%r8, %r10
	addq	%r10, %r11
	movq	%r13, 1072(%rsp)
	movq	%rdx, %r13
	movq	%r8, 256(%rsp)
	movq	%rax, %r8
	addq	%r11, %r13
	movq	232(%rsp), %rax
	testq	%rcx, %rcx
	movq	%rbp, 1000(%rsp)
	movl	$4, %ebp
	cmove	%rbp, %rdx
	salq	$4, %rax
	movq	%r11, 312(%rsp)
	addq	$12, %rax
	testq	%rcx, %rcx
	movl	$12, %ecx
	movq	%r13, 440(%rsp)
	cmovne	%rax, %rcx
	leaq	(%rdx,%r13), %rbp
	leaq	(%r15,%r13), %r13
	movq	%rbp, 304(%rsp)
	movq	%r9, %rbp
	movq	%rcx, 432(%rsp)
	movq	104(%rsp), %rax
	cmovne	272(%rsp), %rax
	movq	%r13, 528(%rsp)
	movq	120(%rsp), %rcx
	addq	%rax, %rbp
	addq	%r10, %rax
	movq	%rax, 288(%rsp)
	movq	%rdx, %rax
	movq	8(%rsp), %rdx
	addq	%r11, %rax
	movq	%rbp, 296(%rsp)
	movq	%r10, %rbp
	leaq	(%r15,%r10), %r10
	testq	%rdx, %rdx
	movq	%rax, 424(%rsp)
	movl	$1, %eax
	cmovne	%rdx, %rax
	leaq	(%r15,%r9), %rdx
	movq	128(%rsp), %r9
	movq	%r10, 16(%rsp)
	movq	%rdx, 48(%rsp)
	leaq	(%r15,%r11), %rdx
	movq	%rsi, %r11
	movq	%rax, 560(%rsp)
	movq	%rax, %r13
	shrq	$2, %rax
	andq	$-4, %r13
	salq	$4, %rax
	movq	%rdx, 536(%rsp)
	movq	%rcx, %rdx
	movq	%rax, 656(%rsp)
	movq	%r13, %rax
	movq	%r13, 552(%rsp)
	salq	$4, %r13
	movq	%r13, 544(%rsp)
	movq	%rax, %r13
	leaq	0(,%rax,8), %rax
	addq	%rax, %rdx
	movq	%rdx, 784(%rsp)
	leaq	4(%rax), %rdx
	leaq	(%rcx,%rdx), %r10
	addq	%r9, %rdx
	movq	%rdx, 816(%rsp)
	leaq	0(,%r13,4), %rdx
	addq	%rdx, %rsi
	movq	%r10, 792(%rsp)
	leaq	(%r9,%rax), %r10
	movq	%rsi, 776(%rsp)
	leaq	(%rdi,%rdx), %rsi
	movq	%rsi, 768(%rsp)
	leaq	1(%r13), %rsi
	movq	%rsi, 824(%rsp)
	leaq	8(%rax), %rsi
	movq	%r10, 800(%rsp)
	movq	%rcx, %r10
	leaq	(%rcx,%rsi), %rcx
	movq	%rcx, 832(%rsp)
	leaq	12(%rax), %rcx
	leaq	(%r10,%rcx), %r9
	movq	%r9, 912(%rsp)
	movq	128(%rsp), %r9
	addq	%r9, %rcx
	addq	%r9, %rsi
	movq	%rcx, 904(%rsp)
	leaq	4(%rdx), %rcx
	addq	$8, %rdx
	movq	%rsi, 920(%rsp)
	movq	%r11, %rsi
	leaq	(%r11,%rcx), %r11
	addq	%rdi, %rcx
	movq	%rcx, 840(%rsp)
	leaq	2(%r13), %rcx
	movq	%rcx, 952(%rsp)
	leaq	16(%rax), %rcx
	addq	$20, %rax
	leaq	(%r10,%rcx), %r13
	movq	%r11, 896(%rsp)
	addq	%r9, %rcx
	movq	%r13, 888(%rsp)
	leaq	(%r10,%rax), %r13
	addq	%r9, %rax
	movq	%r13, 880(%rsp)
	movq	472(%rsp), %r11
	movl	$2147473409, %r13d
	movq	%rax, 864(%rsp)
	leaq	(%rsi,%rdx), %rax
	addq	%rdi, %rdx
	movq	488(%rsp), %rdi
	movq	%rax, 856(%rsp)
	movq	%r8, %rax
	movq	352(%rsp), %rsi
	subq	%rdi, %rax
	movq	480(%rsp), %r8
	movq	%rcx, 872(%rsp)
	movq	%rax, 1648(%rsp)
	movq	%rdi, %rax
	negq	%rax
	movq	%rdx, 848(%rsp)
	subq	%rsi, %rax
	movq	%r11, 392(%rsp)
	movq	%rax, 944(%rsp)
	leaq	16(%rbp), %rax
	movq	%rax, 936(%rsp)
	movq	%r8, 400(%rsp)
	movq	%rsi, 192(%rsp)
	movq	$0, 104(%rsp)
	movq	$0, 224(%rsp)
	movq	%r12, 112(%rsp)
	movq	16(%rsp), %r12
	movq	%r15, 200(%rsp)
	movq	48(%rsp), %r15
.L390:
	movl	$2, %eax
	movl	$2, %edx
	movl	%r13d, %edi
	movl	%r13d, %r8d
	subl	%r13d, %eax
	movl	%eax, %ecx
	imull	%r13d, %ecx
	subl	%ecx, %edx
	imull	%edx, %eax
	movl	$2, %edx
	movl	%eax, %ecx
	imull	%r13d, %ecx
	subl	%ecx, %edx
	imull	%edx, %eax
	movl	$2, %edx
	movl	%eax, %ecx
	imull	%r13d, %ecx
	subl	%ecx, %edx
	imull	%edx, %eax
	movl	%eax, %edx
	imull	%r13d, %edx
	subl	$2, %edx
	imull	%edx, %eax
	andl	$2147483647, %eax
	movl	%eax, %esi
	movl	%eax, %r9d
	movl	%eax, 48(%rsp)
	call	modp_R2
	movl	1016(%rsp), %edx
	movq	112(%rsp), %rdi
	movl	%eax, 16(%rsp)
	movq	264(%rsp), %rax
	movq	280(%rsp), %rsi
	movl	4(%rax), %ecx
	call	modp_mkgm2
	cmpb	$0, 1021(%rsp)
	je	.L434
	movd	%r13d, %xmm6
	xorl	%eax, %eax
	pxor	%xmm4, %xmm4
	movq	640(%rsp), %rdx
	movq	408(%rsp), %rcx
	movq	344(%rsp), %rsi
	pshufd	$0, %xmm6, %xmm2
	pxor	%xmm3, %xmm3
	.p2align 4,,10
	.p2align 3
.L350:
	movdqu	(%rcx,%rax), %xmm0
	movdqa	%xmm4, %xmm5
	movdqa	%xmm3, %xmm6
	pcmpgtb	%xmm0, %xmm5
	movdqa	%xmm0, %xmm1
	punpcklbw	%xmm5, %xmm1
	punpckhbw	%xmm5, %xmm0
	pcmpgtw	%xmm1, %xmm6
	movdqa	%xmm1, %xmm7
	punpcklwd	%xmm6, %xmm7
	punpckhwd	%xmm6, %xmm1
	movdqa	%xmm0, %xmm6
	movdqa	%xmm7, %xmm5
	psrad	$31, %xmm5
	pand	%xmm2, %xmm5
	paddd	%xmm7, %xmm5
	movups	%xmm5, (%r14,%rax,4)
	movdqa	%xmm1, %xmm5
	psrad	$31, %xmm5
	pand	%xmm2, %xmm5
	paddd	%xmm5, %xmm1
	movdqa	%xmm3, %xmm5
	pcmpgtw	%xmm0, %xmm5
	movups	%xmm1, 16(%r14,%rax,4)
	punpcklwd	%xmm5, %xmm6
	punpckhwd	%xmm5, %xmm0
	movdqa	%xmm4, %xmm5
	movdqa	%xmm6, %xmm1
	psrad	$31, %xmm1
	pand	%xmm2, %xmm1
	paddd	%xmm6, %xmm1
	movdqa	%xmm3, %xmm6
	movups	%xmm1, 32(%r14,%rax,4)
	movdqa	%xmm0, %xmm1
	psrad	$31, %xmm1
	pand	%xmm2, %xmm1
	paddd	%xmm1, %xmm0
	movups	%xmm0, 48(%r14,%rax,4)
	movdqu	(%rsi,%rax), %xmm0
	pcmpgtb	%xmm0, %xmm5
	movdqa	%xmm0, %xmm1
	punpcklbw	%xmm5, %xmm1
	punpckhbw	%xmm5, %xmm0
	pcmpgtw	%xmm1, %xmm6
	movdqa	%xmm1, %xmm7
	punpcklwd	%xmm6, %xmm7
	punpckhwd	%xmm6, %xmm1
	movdqa	%xmm0, %xmm6
	movdqa	%xmm7, %xmm5
	psrad	$31, %xmm5
	pand	%xmm2, %xmm5
	paddd	%xmm7, %xmm5
	movups	%xmm5, (%rbx,%rax,4)
	movdqa	%xmm1, %xmm5
	psrad	$31, %xmm5
	pand	%xmm2, %xmm5
	paddd	%xmm5, %xmm1
	movdqa	%xmm3, %xmm5
	pcmpgtw	%xmm0, %xmm5
	movups	%xmm1, 16(%rbx,%rax,4)
	punpcklwd	%xmm5, %xmm6
	punpckhwd	%xmm5, %xmm0
	movdqa	%xmm6, %xmm1
	psrad	$31, %xmm1
	pand	%xmm2, %xmm1
	paddd	%xmm6, %xmm1
	movups	%xmm1, 32(%rbx,%rax,4)
	movdqa	%xmm0, %xmm1
	psrad	$31, %xmm1
	pand	%xmm2, %xmm1
	paddd	%xmm1, %xmm0
	movups	%xmm0, 48(%rbx,%rax,4)
	addq	$16, %rax
	cmpq	%rax, %rdx
	jne	.L350
	movq	384(%rsp), %rsi
	movq	96(%rsp), %rax
	cmpq	%rax, %rsi
	je	.L352
	movq	672(%rsp), %rax
	movq	680(%rsp), %rdi
	movsbl	(%rax), %edx
	movl	%edx, %eax
	sarl	$31, %eax
	andl	%r13d, %eax
	addl	%edx, %eax
	movl	%eax, (%rdi)
	movq	688(%rsp), %rax
	movq	696(%rsp), %rdi
	movsbl	(%rax), %edx
	movl	%edx, %eax
	sarl	$31, %eax
	andl	%r13d, %eax
	addl	%edx, %eax
	movl	%eax, (%rdi)
	movq	704(%rsp), %rax
	cmpq	%rax, %rsi
	jbe	.L352
	movq	712(%rsp), %rax
	movq	720(%rsp), %rdi
	movsbl	(%rax), %edx
	movl	%edx, %eax
	sarl	$31, %eax
	andl	%r13d, %eax
	addl	%edx, %eax
	movl	%eax, (%rdi)
	movq	728(%rsp), %rax
	movq	736(%rsp), %rdi
	movsbl	(%rax), %edx
	movl	%edx, %eax
	sarl	$31, %eax
	andl	%r13d, %eax
	addl	%edx, %eax
	movl	%eax, (%rdi)
	movq	744(%rsp), %rax
	cmpq	%rax, %rsi
	jbe	.L352
	movq	1168(%rsp), %rax
	movq	1176(%rsp), %rdi
	movsbl	(%rax), %edx
	movl	%edx, %eax
	sarl	$31, %eax
	andl	%r13d, %eax
	addl	%edx, %eax
	movl	%eax, (%rdi)
	movq	1184(%rsp), %rax
	movq	1192(%rsp), %rdi
	movsbl	(%rax), %edx
	movl	%edx, %eax
	sarl	$31, %eax
	andl	%r13d, %eax
	addl	%edx, %eax
	movl	%eax, (%rdi)
	movq	1200(%rsp), %rax
	cmpq	%rax, %rsi
	jbe	.L352
	movq	1208(%rsp), %rax
	movq	1216(%rsp), %rdi
	movsbl	(%rax), %edx
	movl	%edx, %eax
	sarl	$31, %eax
	andl	%r13d, %eax
	addl	%edx, %eax
	movl	%eax, (%rdi)
	movq	1224(%rsp), %rax
	movq	1232(%rsp), %rdi
	movsbl	(%rax), %edx
	movl	%edx, %eax
	sarl	$31, %eax
	andl	%r13d, %eax
	addl	%edx, %eax
	movl	%eax, (%rdi)
	movq	1240(%rsp), %rax
	cmpq	%rax, %rsi
	jbe	.L352
	movq	1248(%rsp), %rax
	movq	1256(%rsp), %rdi
	movsbl	(%rax), %edx
	movl	%edx, %eax
	sarl	$31, %eax
	andl	%r13d, %eax
	addl	%edx, %eax
	movl	%eax, (%rdi)
	movq	1264(%rsp), %rax
	movq	1272(%rsp), %rdi
	movsbl	(%rax), %edx
	movl	%edx, %eax
	sarl	$31, %eax
	andl	%r13d, %eax
	addl	%edx, %eax
	movl	%eax, (%rdi)
	movq	1280(%rsp), %rax
	cmpq	%rax, %rsi
	jbe	.L352
	movq	1288(%rsp), %rax
	movq	1296(%rsp), %rdi
	movsbl	(%rax), %edx
	movl	%edx, %eax
	sarl	$31, %eax
	andl	%r13d, %eax
	addl	%edx, %eax
	movl	%eax, (%rdi)
	movq	1304(%rsp), %rax
	movq	1312(%rsp), %rdi
	movsbl	(%rax), %edx
	movl	%edx, %eax
	sarl	$31, %eax
	andl	%r13d, %eax
	addl	%edx, %eax
	movl	%eax, (%rdi)
	movq	1320(%rsp), %rax
	cmpq	%rax, %rsi
	jbe	.L352
	movq	1328(%rsp), %rax
	movq	1336(%rsp), %rdi
	movsbl	(%rax), %edx
	movl	%edx, %eax
	sarl	$31, %eax
	andl	%r13d, %eax
	addl	%edx, %eax
	movl	%eax, (%rdi)
	movq	1344(%rsp), %rax
	movq	1352(%rsp), %rdi
	movsbl	(%rax), %edx
	movl	%edx, %eax
	sarl	$31, %eax
	andl	%r13d, %eax
	addl	%edx, %eax
	movl	%eax, (%rdi)
	movq	1360(%rsp), %rax
	cmpq	%rax, %rsi
	jbe	.L352
	movq	1368(%rsp), %rax
	movq	1376(%rsp), %rdi
	movsbl	(%rax), %edx
	movl	%edx, %eax
	sarl	$31, %eax
	andl	%r13d, %eax
	addl	%edx, %eax
	movl	%eax, (%rdi)
	movq	1384(%rsp), %rax
	movq	1392(%rsp), %rdi
	movsbl	(%rax), %edx
	movl	%edx, %eax
	sarl	$31, %eax
	andl	%r13d, %eax
	addl	%edx, %eax
	movl	%eax, (%rdi)
	movq	1400(%rsp), %rax
	cmpq	%rax, %rsi
	jbe	.L352
	movq	1408(%rsp), %rax
	movq	1416(%rsp), %rdi
	movsbl	(%rax), %edx
	movl	%edx, %eax
	sarl	$31, %eax
	andl	%r13d, %eax
	addl	%edx, %eax
	movl	%eax, (%rdi)
	movq	1424(%rsp), %rax
	movq	1432(%rsp), %rdi
	movsbl	(%rax), %edx
	movl	%edx, %eax
	sarl	$31, %eax
	andl	%r13d, %eax
	addl	%edx, %eax
	movl	%eax, (%rdi)
	movq	1440(%rsp), %rax
	cmpq	%rax, %rsi
	jbe	.L352
	movq	1448(%rsp), %rax
	movq	1456(%rsp), %rdi
	movsbl	(%rax), %edx
	movl	%edx, %eax
	sarl	$31, %eax
	andl	%r13d, %eax
	addl	%edx, %eax
	movl	%eax, (%rdi)
	movq	1464(%rsp), %rax
	movq	1472(%rsp), %rdi
	movsbl	(%rax), %edx
	movl	%edx, %eax
	sarl	$31, %eax
	andl	%r13d, %eax
	addl	%edx, %eax
	movl	%eax, (%rdi)
	movq	1480(%rsp), %rax
	cmpq	%rax, %rsi
	jbe	.L352
	movq	1488(%rsp), %rax
	movq	1496(%rsp), %rdi
	movsbl	(%rax), %edx
	movl	%edx, %eax
	sarl	$31, %eax
	andl	%r13d, %eax
	addl	%edx, %eax
	movl	%eax, (%rdi)
	movq	1504(%rsp), %rax
	movq	1512(%rsp), %rdi
	movsbl	(%rax), %edx
	movl	%edx, %eax
	sarl	$31, %eax
	andl	%r13d, %eax
	addl	%edx, %eax
	movl	%eax, (%rdi)
	movq	1520(%rsp), %rax
	cmpq	%rax, %rsi
	jbe	.L352
	movq	1528(%rsp), %rax
	movq	1536(%rsp), %rdi
	movsbl	(%rax), %edx
	movl	%edx, %eax
	sarl	$31, %eax
	andl	%r13d, %eax
	addl	%edx, %eax
	movl	%eax, (%rdi)
	movq	1544(%rsp), %rax
	movq	1552(%rsp), %rdi
	movsbl	(%rax), %edx
	movl	%edx, %eax
	sarl	$31, %eax
	andl	%r13d, %eax
	addl	%edx, %eax
	movl	%eax, (%rdi)
	movq	1560(%rsp), %rax
	cmpq	%rax, %rsi
	jbe	.L352
	movq	1568(%rsp), %rax
	movq	1576(%rsp), %rdi
	movsbl	(%rax), %edx
	movl	%edx, %eax
	sarl	$31, %eax
	andl	%r13d, %eax
	addl	%edx, %eax
	movl	%eax, (%rdi)
	movq	1584(%rsp), %rax
	movq	1592(%rsp), %rdi
	movsbl	(%rax), %edx
	movl	%edx, %eax
	sarl	$31, %eax
	andl	%r13d, %eax
	addl	%edx, %eax
	movl	%eax, (%rdi)
	movq	1600(%rsp), %rax
	cmpq	%rax, %rsi
	jbe	.L352
	movq	1608(%rsp), %rax
	movq	1616(%rsp), %rdi
	movsbl	(%rax), %edx
	movl	%edx, %eax
	sarl	$31, %eax
	andl	%r13d, %eax
	addl	%edx, %eax
	movl	%eax, (%rdi)
	movq	1624(%rsp), %rax
	movq	1632(%rsp), %rdi
	movsbl	(%rax), %edx
	movl	%edx, %eax
	sarl	$31, %eax
	andl	%r13d, %eax
	addl	%edx, %eax
	movl	%eax, (%rdi)
	movq	1640(%rsp), %rax
	cmpq	%rax, %rsi
	jbe	.L352
	movq	1080(%rsp), %rax
	movq	1088(%rsp), %rsi
	movsbl	(%rax), %edx
	movl	%edx, %eax
	sarl	$31, %eax
	andl	%r13d, %eax
	addl	%edx, %eax
	movl	%eax, (%rsi)
	movq	1096(%rsp), %rax
	movq	1104(%rsp), %rsi
	movsbl	(%rax), %edx
	movl	%edx, %eax
	sarl	$31, %eax
	andl	%r13d, %eax
	addl	%edx, %eax
	movl	%eax, (%rsi)
.L352:
	movl	1016(%rsp), %esi
	testl	%esi, %esi
	je	.L363
	movl	48(%rsp), %ebp
	movq	112(%rsp), %rsi
	movl	%r13d, %ecx
	movl	1016(%rsp), %edx
	movq	216(%rsp), %rdi
	movl	%ebp, %r8d
	call	modp_NTT2_ext.part.0.constprop.0
	movq	112(%rsp), %rsi
	movl	%r13d, %ecx
	movl	%ebp, %r8d
	movl	1016(%rsp), %edx
	movq	64(%rsp), %rdi
	call	modp_NTT2_ext.part.0.constprop.0
	movl	16(%rsp), %esi
	movl	%ebp, %edx
	movl	%r13d, %ecx
	cmpb	$0, 1022(%rsp)
	je	.L435
	movd	%r13d, %xmm7
	movq	%rdx, %xmm3
	movq	%rcx, %xmm2
	xorl	%eax, %eax
	pshufd	$0, %xmm7, %xmm6
	movd	%esi, %xmm7
	punpcklqdq	%xmm3, %xmm3
	movq	336(%rsp), %rdi
	pshufd	$0, %xmm7, %xmm7
	punpcklqdq	%xmm2, %xmm2
	movdqa	%xmm3, %xmm5
	movdqa	%xmm7, %xmm8
	psrlq	$32, %xmm5
	movdqa	%xmm2, %xmm4
	punpckldq	%xmm7, %xmm8
	psrlq	$32, %xmm4
	punpckhdq	%xmm7, %xmm7
	.p2align 4,,10
	.p2align 3
.L357:
	movdqu	(%r14,%rax,2), %xmm9
	movdqu	16(%r14,%rax,2), %xmm0
	movdqa	%xmm5, %xmm10
	movdqa	%xmm9, %xmm1
	shufps	$221, %xmm0, %xmm9
	shufps	$136, %xmm0, %xmm1
	movdqa	%xmm9, %xmm0
	movdqa	%xmm1, %xmm11
	punpckldq	%xmm9, %xmm0
	punpckldq	%xmm1, %xmm11
	punpckhdq	%xmm9, %xmm9
	pmuludq	%xmm0, %xmm11
	punpckhdq	%xmm1, %xmm1
	pmuludq	%xmm9, %xmm1
	movdqa	%xmm11, %xmm0
	pmuludq	%xmm11, %xmm10
	movdqa	%xmm11, %xmm9
	psrlq	$32, %xmm0
	pmuludq	%xmm3, %xmm9
	pmuludq	%xmm3, %xmm0
	paddq	%xmm10, %xmm0
	psllq	$32, %xmm0
	paddq	%xmm0, %xmm9
	pand	.LC10(%rip), %xmm9
	movdqa	%xmm9, %xmm10
	movdqa	%xmm9, %xmm0
	psrlq	$32, %xmm10
	pmuludq	%xmm4, %xmm9
	pmuludq	%xmm2, %xmm10
	pmuludq	%xmm2, %xmm0
	paddq	%xmm9, %xmm10
	movdqa	%xmm1, %xmm9
	psllq	$32, %xmm10
	pmuludq	%xmm3, %xmm9
	paddq	%xmm10, %xmm0
	movdqa	%xmm1, %xmm10
	paddq	%xmm11, %xmm0
	psrlq	$32, %xmm10
	movdqa	%xmm5, %xmm11
	pmuludq	%xmm1, %xmm11
	pmuludq	%xmm3, %xmm10
	psrlq	$31, %xmm0
	paddq	%xmm11, %xmm10
	psllq	$32, %xmm10
	paddq	%xmm10, %xmm9
	pand	.LC10(%rip), %xmm9
	movdqa	%xmm9, %xmm11
	movdqa	%xmm9, %xmm10
	psrlq	$32, %xmm11
	pmuludq	%xmm4, %xmm9
	pmuludq	%xmm2, %xmm11
	pmuludq	%xmm2, %xmm10
	paddq	%xmm9, %xmm11
	movdqa	%xmm10, %xmm9
	psllq	$32, %xmm11
	paddq	%xmm11, %xmm9
	paddq	%xmm9, %xmm1
	movdqa	%xmm3, %xmm9
	psrlq	$31, %xmm1
	shufps	$136, %xmm1, %xmm0
	psubd	%xmm6, %xmm0
	movdqa	%xmm0, %xmm1
	psrad	$31, %xmm0
	pand	%xmm6, %xmm0
	paddd	%xmm1, %xmm0
	movdqa	%xmm5, %xmm1
	movdqa	%xmm0, %xmm11
	punpckldq	%xmm0, %xmm11
	punpckhdq	%xmm0, %xmm0
	pmuludq	%xmm8, %xmm11
	pmuludq	%xmm7, %xmm0
	pmuludq	%xmm11, %xmm1
	pmuludq	%xmm11, %xmm9
	movdqa	%xmm11, %xmm10
	psrlq	$32, %xmm10
	pmuludq	%xmm3, %xmm10
	paddq	%xmm10, %xmm1
	psllq	$32, %xmm1
	paddq	%xmm1, %xmm9
	pand	.LC10(%rip), %xmm9
	movdqa	%xmm9, %xmm10
	movdqa	%xmm9, %xmm1
	psrlq	$32, %xmm10
	pmuludq	%xmm4, %xmm9
	pmuludq	%xmm2, %xmm10
	pmuludq	%xmm2, %xmm1
	paddq	%xmm9, %xmm10
	movdqa	%xmm3, %xmm9
	psllq	$32, %xmm10
	pmuludq	%xmm0, %xmm9
	paddq	%xmm10, %xmm1
	movdqa	%xmm5, %xmm10
	paddq	%xmm11, %xmm1
	pmuludq	%xmm0, %xmm10
	movdqa	%xmm0, %xmm11
	psrlq	$32, %xmm11
	psrlq	$31, %xmm1
	pmuludq	%xmm3, %xmm11
	paddq	%xmm11, %xmm10
	psllq	$32, %xmm10
	paddq	%xmm10, %xmm9
	pand	.LC10(%rip), %xmm9
	movdqa	%xmm9, %xmm11
	movdqa	%xmm9, %xmm10
	psrlq	$32, %xmm11
	pmuludq	%xmm4, %xmm9
	pmuludq	%xmm2, %xmm11
	pmuludq	%xmm2, %xmm10
	paddq	%xmm9, %xmm11
	movdqa	%xmm10, %xmm9
	psllq	$32, %xmm11
	paddq	%xmm11, %xmm9
	paddq	%xmm9, %xmm0
	psrlq	$31, %xmm0
	shufps	$136, %xmm0, %xmm1
	psubd	%xmm6, %xmm1
	movdqa	%xmm1, %xmm0
	psrad	$31, %xmm0
	pand	%xmm6, %xmm0
	paddd	%xmm1, %xmm0
	movups	%xmm0, (%r14,%rax)
	addq	$16, %rax
	cmpq	%rax, %rdi
	jne	.L357
	movq	40(%rsp), %r11
	movq	184(%rsp), %rax
	cmpq	%rax, %r11
	je	.L359
	movq	1120(%rsp), %rax
	movl	(%rax), %edi
	movq	1128(%rsp), %rax
	movl	(%rax), %eax
	imulq	%rax, %rdi
	movq	%rdx, %rax
	imulq	%rdi, %rax
	andl	$2147483647, %eax
	imulq	%rcx, %rax
	addq	%rdi, %rax
	shrq	$31, %rax
	subl	%r13d, %eax
	movl	%eax, %edi
	sarl	$31, %edi
	andl	%r13d, %edi
	addl	%eax, %edi
	movq	%rdx, %rax
	movl	%edi, %edi
	imulq	%rsi, %rdi
	imulq	%rdi, %rax
	andl	$2147483647, %eax
	imulq	%rcx, %rax
	addq	%rdi, %rax
	shrq	$31, %rax
	subl	%r13d, %eax
	movl	%eax, %edi
	sarl	$31, %edi
	andl	%r13d, %edi
	addl	%edi, %eax
	movq	1136(%rsp), %rdi
	movl	%eax, (%rdi)
	movq	416(%rsp), %rax
	cmpq	%rax, %r11
	jbe	.L359
	movq	1144(%rsp), %rax
	movl	(%rax), %edi
	movq	1152(%rsp), %rax
	movl	(%rax), %eax
	imulq	%rax, %rdi
	movq	%rdx, %rax
	imulq	%rdi, %rax
	andl	$2147483647, %eax
	imulq	%rcx, %rax
	addq	%rdi, %rax
	shrq	$31, %rax
	subl	%r13d, %eax
	movl	%eax, %edi
	sarl	$31, %edi
	andl	%r13d, %edi
	addl	%eax, %edi
	movq	%rdx, %rax
	movl	%edi, %edi
	imulq	%rsi, %rdi
	imulq	%rdi, %rax
	andl	$2147483647, %eax
	imulq	%rcx, %rax
	addq	%rdi, %rax
	shrq	$31, %rax
	subl	%r13d, %eax
	movl	%eax, %edi
	sarl	$31, %edi
	andl	%r13d, %edi
	addl	%edi, %eax
	movq	1160(%rsp), %rdi
	movl	%eax, (%rdi)
	movq	664(%rsp), %rax
	cmpq	%rax, %r11
	jbe	.L359
	movq	1048(%rsp), %rax
	movl	(%rax), %edi
	movq	1056(%rsp), %rax
	movl	(%rax), %eax
	imulq	%rax, %rdi
	movq	%rdx, %rax
	imulq	%rdi, %rax
	andl	$2147483647, %eax
	imulq	%rcx, %rax
	addq	%rdi, %rax
	shrq	$31, %rax
	subl	%r13d, %eax
	movl	%eax, %edi
	sarl	$31, %edi
	andl	%r13d, %edi
	addl	%eax, %edi
	movq	%rdx, %rax
	movl	%edi, %edi
	imulq	%rsi, %rdi
	imulq	%rdi, %rax
	andl	$2147483647, %eax
	imulq	%rcx, %rax
	addq	%rdi, %rax
	shrq	$31, %rax
	subl	%r13d, %eax
	movl	%eax, %edi
	sarl	$31, %edi
	andl	%r13d, %edi
	addl	%edi, %eax
	movq	1064(%rsp), %rdi
	movl	%eax, (%rdi)
.L359:
	cmpb	$0, 1023(%rsp)
	je	.L436
.L530:
	movd	%r13d, %xmm6
	movq	%rdx, %xmm4
	movq	%rcx, %xmm3
	xorl	%eax, %eax
	pshufd	$0, %xmm6, %xmm7
	punpcklqdq	%xmm4, %xmm4
	movd	16(%rsp), %xmm6
	punpcklqdq	%xmm3, %xmm3
	movdqa	%xmm3, %xmm5
	movq	336(%rsp), %rdi
	pshufd	$0, %xmm6, %xmm8
	psrlq	$32, %xmm5
	movdqa	%xmm4, %xmm6
	movdqa	%xmm8, %xmm9
	psrlq	$32, %xmm6
	punpckldq	%xmm8, %xmm9
	punpckhdq	%xmm8, %xmm8
.L361:
	movdqu	(%rbx,%rax,2), %xmm2
	movdqu	16(%rbx,%rax,2), %xmm0
	movdqa	%xmm6, %xmm10
	movdqa	%xmm2, %xmm1
	shufps	$221, %xmm0, %xmm2
	shufps	$136, %xmm0, %xmm1
	movdqa	%xmm2, %xmm0
	movdqa	%xmm1, %xmm11
	punpckldq	%xmm2, %xmm0
	punpckldq	%xmm1, %xmm11
	punpckhdq	%xmm2, %xmm2
	pmuludq	%xmm0, %xmm11
	punpckhdq	%xmm1, %xmm1
	pmuludq	%xmm2, %xmm1
	movdqa	%xmm11, %xmm0
	pmuludq	%xmm11, %xmm10
	movdqa	%xmm11, %xmm2
	psrlq	$32, %xmm0
	pmuludq	%xmm4, %xmm2
	pmuludq	%xmm4, %xmm0
	paddq	%xmm10, %xmm0
	psllq	$32, %xmm0
	paddq	%xmm0, %xmm2
	pand	.LC10(%rip), %xmm2
	movdqa	%xmm2, %xmm10
	movdqa	%xmm2, %xmm0
	psrlq	$32, %xmm10
	pmuludq	%xmm5, %xmm2
	pmuludq	%xmm3, %xmm10
	pmuludq	%xmm3, %xmm0
	paddq	%xmm2, %xmm10
	movdqa	%xmm1, %xmm2
	psllq	$32, %xmm10
	pmuludq	%xmm4, %xmm2
	paddq	%xmm10, %xmm0
	movdqa	%xmm1, %xmm10
	paddq	%xmm11, %xmm0
	psrlq	$32, %xmm10
	movdqa	%xmm6, %xmm11
	pmuludq	%xmm1, %xmm11
	pmuludq	%xmm4, %xmm10
	psrlq	$31, %xmm0
	paddq	%xmm11, %xmm10
	psllq	$32, %xmm10
	paddq	%xmm10, %xmm2
	pand	.LC10(%rip), %xmm2
	movdqa	%xmm2, %xmm11
	movdqa	%xmm2, %xmm10
	psrlq	$32, %xmm11
	pmuludq	%xmm5, %xmm2
	pmuludq	%xmm3, %xmm11
	pmuludq	%xmm3, %xmm10
	paddq	%xmm2, %xmm11
	movdqa	%xmm10, %xmm2
	psllq	$32, %xmm11
	paddq	%xmm11, %xmm2
	paddq	%xmm2, %xmm1
	movdqa	%xmm4, %xmm2
	psrlq	$31, %xmm1
	shufps	$136, %xmm1, %xmm0
	psubd	%xmm7, %xmm0
	movdqa	%xmm0, %xmm1
	psrad	$31, %xmm0
	pand	%xmm7, %xmm0
	paddd	%xmm1, %xmm0
	movdqa	%xmm6, %xmm1
	movdqa	%xmm0, %xmm11
	punpckldq	%xmm0, %xmm11
	punpckhdq	%xmm0, %xmm0
	pmuludq	%xmm9, %xmm11
	pmuludq	%xmm8, %xmm0
	pmuludq	%xmm11, %xmm1
	pmuludq	%xmm11, %xmm2
	movdqa	%xmm11, %xmm10
	psrlq	$32, %xmm10
	pmuludq	%xmm4, %xmm10
	paddq	%xmm10, %xmm1
	psllq	$32, %xmm1
	paddq	%xmm1, %xmm2
	pand	.LC10(%rip), %xmm2
	movdqa	%xmm2, %xmm10
	movdqa	%xmm2, %xmm1
	psrlq	$32, %xmm10
	pmuludq	%xmm5, %xmm2
	pmuludq	%xmm3, %xmm10
	pmuludq	%xmm3, %xmm1
	paddq	%xmm2, %xmm10
	movdqa	%xmm4, %xmm2
	psllq	$32, %xmm10
	pmuludq	%xmm0, %xmm2
	paddq	%xmm10, %xmm1
	movdqa	%xmm6, %xmm10
	paddq	%xmm11, %xmm1
	pmuludq	%xmm0, %xmm10
	movdqa	%xmm0, %xmm11
	psrlq	$32, %xmm11
	psrlq	$31, %xmm1
	pmuludq	%xmm4, %xmm11
	paddq	%xmm11, %xmm10
	psllq	$32, %xmm10
	paddq	%xmm10, %xmm2
	pand	.LC10(%rip), %xmm2
	movdqa	%xmm2, %xmm11
	movdqa	%xmm2, %xmm10
	psrlq	$32, %xmm11
	pmuludq	%xmm5, %xmm2
	pmuludq	%xmm3, %xmm11
	pmuludq	%xmm3, %xmm10
	paddq	%xmm2, %xmm11
	movdqa	%xmm10, %xmm2
	psllq	$32, %xmm11
	paddq	%xmm11, %xmm2
	paddq	%xmm2, %xmm0
	psrlq	$31, %xmm0
	shufps	$136, %xmm0, %xmm1
	psubd	%xmm7, %xmm1
	movdqa	%xmm1, %xmm0
	psrad	$31, %xmm0
	pand	%xmm7, %xmm0
	paddd	%xmm1, %xmm0
	movups	%xmm0, (%rbx,%rax)
	addq	$16, %rax
	cmpq	%rax, %rdi
	jne	.L361
	movq	40(%rsp), %r11
	movq	184(%rsp), %rax
	cmpq	%rax, %r11
	je	.L363
	movq	960(%rsp), %rax
	movl	(%rax), %edi
	movq	968(%rsp), %rax
	movl	(%rax), %eax
	imulq	%rax, %rdi
	movq	%rdx, %rax
	imulq	%rdi, %rax
	andl	$2147483647, %eax
	imulq	%rcx, %rax
	addq	%rdi, %rax
	shrq	$31, %rax
	subl	%r13d, %eax
	movl	%eax, %edi
	sarl	$31, %edi
	andl	%r13d, %edi
	addl	%eax, %edi
	movq	%rdx, %rax
	movl	%edi, %edi
	imulq	%rsi, %rdi
	imulq	%rdi, %rax
	andl	$2147483647, %eax
	imulq	%rcx, %rax
	addq	%rdi, %rax
	shrq	$31, %rax
	subl	%r13d, %eax
	movl	%eax, %edi
	sarl	$31, %edi
	andl	%r13d, %edi
	addl	%edi, %eax
	movq	976(%rsp), %rdi
	movl	%eax, (%rdi)
	movq	416(%rsp), %rax
	cmpq	%rax, %r11
	jbe	.L363
	movq	984(%rsp), %rax
	movl	(%rax), %edi
	movq	992(%rsp), %rax
	movl	(%rax), %eax
	imulq	%rax, %rdi
	movq	%rdx, %rax
	imulq	%rdi, %rax
	andl	$2147483647, %eax
	imulq	%rcx, %rax
	addq	%rdi, %rax
	shrq	$31, %rax
	subl	%r13d, %eax
	movl	%eax, %edi
	sarl	$31, %edi
	andl	%r13d, %edi
	addl	%eax, %edi
	movq	%rdx, %rax
	movl	%edi, %edi
	imulq	%rsi, %rdi
	imulq	%rdi, %rax
	andl	$2147483647, %eax
	imulq	%rcx, %rax
	addq	%rdi, %rax
	shrq	$31, %rax
	subl	%r13d, %eax
	movl	%eax, %edi
	sarl	$31, %edi
	andl	%r13d, %edi
	addl	%edi, %eax
	movq	1112(%rsp), %rdi
	movl	%eax, (%rdi)
	movq	664(%rsp), %rax
	cmpq	%rax, %r11
	jbe	.L363
	movq	1024(%rsp), %rax
	movl	(%rax), %edi
	movq	1032(%rsp), %rax
	movl	(%rax), %eax
	imulq	%rax, %rdi
	movq	%rdx, %rax
	imulq	%rdi, %rax
	andl	$2147483647, %eax
	imulq	%rcx, %rax
	addq	%rdi, %rax
	shrq	$31, %rax
	subl	%r13d, %eax
	movl	%eax, %edi
	sarl	$31, %edi
	andl	%r13d, %edi
	addl	%edi, %eax
	movl	%eax, %eax
	imulq	%rax, %rsi
	movq	%rdx, %rax
	imulq	%rsi, %rax
	andl	$2147483647, %eax
	imulq	%rcx, %rax
	addq	%rsi, %rax
	movq	1040(%rsp), %rsi
	shrq	$31, %rax
	subl	%r13d, %eax
	cltd
	andl	%r13d, %edx
	addl	%edx, %eax
	movl	%eax, (%rsi)
.L363:
	movq	248(%rsp), %rbp
	movq	280(%rsp), %rsi
	movq	208(%rsp), %rdi
	movq	%rbp, %rdx
	call	memmove@PLT
	movq	216(%rsp), %rsi
	movq	120(%rsp), %rdi
	movq	%rbp, %rdx
	call	memmove@PLT
	movq	64(%rsp), %rsi
	movq	128(%rsp), %rdi
	movq	%rbp, %rdx
	call	memmove@PLT
	movq	104(%rsp), %rsi
	movq	200(%rsp), %rbp
	movq	328(%rsp), %rax
	addq	%rsi, %rbp
	addq	%rsi, %rax
	cmpq	$0, 8(%rsp)
	movq	%rax, 168(%rsp)
	je	.L525
	movq	272(%rsp), %rax
	movq	192(%rsp), %r11
	movq	%rsi, %r9
	movq	456(%rsp), %r10
	movq	464(%rsp), %r8
	leaq	-4(%rax), %rdx
	movq	360(%rsp), %rax
	leaq	(%rdx,%r11), %rsi
	addq	%r9, %rdx
	subq	$4, %rax
	cmpq	$8, %rax
	seta	%al
	cmpq	$3, 232(%rsp)
	seta	%cl
	andl	%ecx, %eax
	cmpq	%r10, %rsi
	setle	%cl
	cmpq	%r8, %r11
	setge	%dil
	orl	%edi, %ecx
	andl	%ecx, %eax
	cmpq	%r10, %rdx
	setle	%cl
	cmpq	%r8, %r9
	setge	%dil
	orl	%edi, %ecx
	movq	%r11, %rdi
	andl	%ecx, %eax
	cmpq	%r10, %r11
	movq	448(%rsp), %r11
	setge	%cl
	cmpq	%r11, %rsi
	setle	%sil
	orl	%esi, %ecx
	testb	%cl, %al
	je	.L437
	cmpq	%r11, %rdx
	setle	%al
	cmpq	%r10, %r9
	setge	%dl
	orb	%dl, %al
	je	.L437
	movq	200(%rsp), %rdx
	movq	616(%rsp), %rcx
	xorl	%eax, %eax
	movq	624(%rsp), %rsi
	addq	%rdi, %rdx
	movq	648(%rsp), %rdi
	.p2align 4,,10
	.p2align 3
.L367:
	movdqu	16(%rbp,%rax,2), %xmm6
	movdqu	0(%rbp,%rax,2), %xmm0
	shufps	$136, %xmm6, %xmm0
	movups	%xmm0, (%rcx,%rax)
	movdqu	(%rdx,%rax,2), %xmm0
	movdqu	16(%rdx,%rax,2), %xmm6
	shufps	$136, %xmm6, %xmm0
	movups	%xmm0, (%rsi,%rax)
	addq	$16, %rax
	cmpq	%rax, %rdi
	jne	.L367
	movq	608(%rsp), %rsi
	movq	168(%rsp), %rax
	movq	600(%rsp), %rdi
	leaq	0(%rbp,%rsi), %rdx
	addq	%rsi, %rax
	movq	584(%rsp), %rsi
	movl	(%rdx), %ecx
	movl	%ecx, (%rsi)
	movq	592(%rsp), %rsi
	movl	(%rax), %ecx
	movl	%ecx, (%rsi)
	movq	8(%rsp), %rsi
	cmpq	%rdi, %rsi
	jbe	.L368
	movl	8(%rdx), %ecx
	movq	568(%rsp), %rdi
	movl	%ecx, (%rdi)
	movq	576(%rsp), %rdi
	movl	8(%rax), %ecx
	movl	%ecx, (%rdi)
	movq	520(%rsp), %rdi
	cmpq	%rdi, %rsi
	jbe	.L368
	movl	16(%rdx), %ecx
	movq	760(%rsp), %rdi
	movl	%ecx, (%rdi)
	movq	928(%rsp), %rdi
	movl	16(%rax), %ecx
	movl	%ecx, (%rdi)
	movq	752(%rsp), %rdi
	cmpq	%rdi, %rsi
	jbe	.L368
	movl	24(%rdx), %edx
	movq	1000(%rsp), %rsi
	movl	%edx, (%rsi)
	movq	1008(%rsp), %rsi
	movl	24(%rax), %eax
	movl	%eax, (%rsi)
.L368:
	movl	176(%rsp), %edx
	testl	%edx, %edx
	je	.L427
	movl	48(%rsp), %r8d
	movq	112(%rsp), %rsi
	movl	%r13d, %ecx
	movl	176(%rsp), %edx
	movq	152(%rsp), %rdi
	call	modp_NTT2_ext.part.0.constprop.0
	movl	48(%rsp), %r8d
	movl	%r13d, %ecx
	movl	176(%rsp), %edx
	movq	112(%rsp), %rsi
	movq	160(%rsp), %rdi
	call	modp_NTT2_ext.part.0.constprop.0
.L427:
	movq	104(%rsp), %r9
	movl	%r13d, %esi
	movl	16(%rsp), %edi
	movq	432(%rsp), %rax
	movq	192(%rsp), %r11
	movq	%rsi, 144(%rsp)
	movq	440(%rsp), %rcx
	leaq	16(%r9), %r8
	movl	48(%rsp), %r10d
	movq	%rdi, 136(%rsp)
	movq	%rax, %rsi
	addq	%r9, %rax
	addq	%r11, %rsi
	cmpq	%rcx, %rax
	movq	%rax, %rdi
	setle	%dl
	cmpq	304(%rsp), %r9
	setge	%al
	orl	%eax, %edx
	cmpq	%rsi, %rcx
	movq	304(%rsp), %rcx
	setge	%al
	cmpq	%rcx, %r11
	setge	%cl
	orl	%ecx, %eax
	andl	%edx, %eax
	cmpq	$82, 8(%rsp)
	seta	%dl
	andl	%edx, %eax
	cmpq	%rsi, 320(%rsp)
	setge	%dl
	cmpq	%r11, 296(%rsp)
	setle	%cl
	orl	%ecx, %edx
	movq	296(%rsp), %rcx
	andl	%eax, %edx
	cmpq	%rdi, 320(%rsp)
	setge	%al
	cmpq	%r9, %rcx
	setle	%cl
	orl	%ecx, %eax
	andl	%edx, %eax
	cmpq	%rsi, 256(%rsp)
	setge	%dl
	cmpq	%r11, 288(%rsp)
	setle	%cl
	orl	%ecx, %edx
	movq	288(%rsp), %rcx
	andl	%eax, %edx
	cmpq	%rdi, 256(%rsp)
	setge	%al
	cmpq	%r9, %rcx
	setle	%cl
	orl	%ecx, %eax
	andl	%edx, %eax
	cmpq	%rsi, 312(%rsp)
	movq	424(%rsp), %rsi
	setge	%dl
	cmpq	%r11, %rsi
	setle	%cl
	orl	%ecx, %edx
	andl	%eax, %edx
	cmpq	%rdi, 312(%rsp)
	setge	%al
	cmpq	%r9, %rsi
	setle	%cl
	orl	%ecx, %eax
	andl	%edx, %eax
	movq	%r11, %rdx
	subq	%r8, %rdx
	cmpq	$40, %rdx
	seta	%dl
	testb	%dl, %al
	je	.L438
	leaq	8(%r11), %rax
	subq	%r8, %rax
	cmpq	$40, %rax
	jbe	.L438
	movd	16(%rsp), %xmm6
	movq	%r10, %xmm1
	movq	200(%rsp), %rax
	movd	%r13d, %xmm7
	movq	144(%rsp), %xmm0
	punpcklqdq	%xmm1, %xmm1
	movq	528(%rsp), %rdi
	pshufd	$0, %xmm7, %xmm7
	pshufd	$0, %xmm6, %xmm2
	leaq	8(%rax), %rdx
	movq	536(%rsp), %r8
	addq	%r11, %rax
	movdqa	%xmm2, %xmm6
	punpcklqdq	%xmm0, %xmm0
	leaq	(%rdx,%r9), %rsi
	movq	%rax, %rcx
	punpckldq	%xmm2, %xmm6
	movdqa	%xmm0, %xmm5
	punpckhdq	%xmm2, %xmm2
	addq	%r11, %rdx
	movaps	%xmm6, 80(%rsp)
	movdqa	%xmm1, %xmm6
	psrlq	$32, %xmm5
	xorl	%eax, %eax
	movq	656(%rsp), %r9
	movaps	%xmm2, 16(%rsp)
	psrlq	$32, %xmm6
	.p2align 4,,10
	.p2align 3
.L372:
	movdqu	(%r8,%rax), %xmm9
	movdqa	80(%rsp), %xmm15
	movdqa	%xmm1, %xmm11
	movdqu	(%r15,%rax,2), %xmm2
	movdqu	16(%r15,%rax,2), %xmm4
	movdqa	%xmm9, %xmm12
	movdqu	(%r12,%rax,2), %xmm3
	punpckldq	%xmm9, %xmm12
	movdqa	%xmm2, %xmm8
	shufps	$221, %xmm4, %xmm2
	punpckhdq	%xmm9, %xmm9
	pmuludq	%xmm15, %xmm12
	shufps	$136, %xmm4, %xmm8
	movdqu	16(%r12,%rax,2), %xmm4
	movdqa	%xmm3, %xmm10
	pmuludq	16(%rsp), %xmm9
	shufps	$136, %xmm4, %xmm10
	shufps	$221, %xmm4, %xmm3
	movdqa	%xmm6, %xmm4
	pmuludq	%xmm12, %xmm4
	pmuludq	%xmm12, %xmm11
	movdqa	%xmm12, %xmm13
	psrlq	$32, %xmm13
	pmuludq	%xmm1, %xmm13
	paddq	%xmm13, %xmm4
	psllq	$32, %xmm4
	paddq	%xmm4, %xmm11
	pand	.LC10(%rip), %xmm11
	movdqa	%xmm11, %xmm13
	movdqa	%xmm11, %xmm4
	psrlq	$32, %xmm13
	pmuludq	%xmm5, %xmm11
	pmuludq	%xmm0, %xmm13
	pmuludq	%xmm0, %xmm4
	paddq	%xmm11, %xmm13
	movdqa	%xmm1, %xmm11
	psllq	$32, %xmm13
	pmuludq	%xmm9, %xmm11
	paddq	%xmm13, %xmm4
	movdqa	%xmm9, %xmm13
	paddq	%xmm12, %xmm4
	psrlq	$32, %xmm13
	movdqa	%xmm6, %xmm12
	pmuludq	%xmm9, %xmm12
	pmuludq	%xmm1, %xmm13
	psrlq	$31, %xmm4
	paddq	%xmm13, %xmm12
	psllq	$32, %xmm12
	paddq	%xmm12, %xmm11
	pand	.LC10(%rip), %xmm11
	movdqa	%xmm11, %xmm13
	movdqa	%xmm11, %xmm12
	psrlq	$32, %xmm13
	pmuludq	%xmm5, %xmm11
	pmuludq	%xmm0, %xmm13
	pmuludq	%xmm0, %xmm12
	paddq	%xmm11, %xmm13
	psllq	$32, %xmm13
	paddq	%xmm13, %xmm12
	paddq	%xmm12, %xmm9
	psrlq	$31, %xmm9
	shufps	$136, %xmm9, %xmm4
	movdqu	(%rdi,%rax), %xmm9
	psubd	%xmm7, %xmm4
	movdqa	%xmm4, %xmm11
	movdqa	%xmm9, %xmm14
	psrad	$31, %xmm11
	punpckldq	%xmm9, %xmm14
	pand	%xmm7, %xmm11
	punpckhdq	%xmm9, %xmm9
	pmuludq	16(%rsp), %xmm9
	pmuludq	%xmm15, %xmm14
	paddd	%xmm4, %xmm11
	movdqa	%xmm6, %xmm4
	movdqa	%xmm3, %xmm15
	punpckldq	%xmm3, %xmm15
	punpckhdq	%xmm3, %xmm3
	movdqa	%xmm14, %xmm13
	pmuludq	%xmm14, %xmm4
	movdqa	%xmm14, %xmm12
	psrlq	$32, %xmm13
	pmuludq	%xmm1, %xmm12
	pmuludq	%xmm1, %xmm13
	paddq	%xmm4, %xmm13
	psllq	$32, %xmm13
	paddq	%xmm13, %xmm12
	pand	.LC10(%rip), %xmm12
	movdqa	%xmm12, %xmm13
	movdqa	%xmm12, %xmm4
	psrlq	$32, %xmm13
	pmuludq	%xmm5, %xmm12
	pmuludq	%xmm0, %xmm13
	pmuludq	%xmm0, %xmm4
	paddq	%xmm12, %xmm13
	movdqa	%xmm9, %xmm12
	psllq	$32, %xmm13
	pmuludq	%xmm1, %xmm12
	paddq	%xmm13, %xmm4
	movdqa	%xmm9, %xmm13
	paddq	%xmm14, %xmm4
	psrlq	$32, %xmm13
	movdqa	%xmm6, %xmm14
	pmuludq	%xmm9, %xmm14
	pmuludq	%xmm1, %xmm13
	psrlq	$31, %xmm4
	paddq	%xmm14, %xmm13
	psllq	$32, %xmm13
	paddq	%xmm13, %xmm12
	pand	.LC10(%rip), %xmm12
	movdqa	%xmm12, %xmm14
	movdqa	%xmm12, %xmm13
	psrlq	$32, %xmm14
	pmuludq	%xmm5, %xmm12
	pmuludq	%xmm0, %xmm14
	pmuludq	%xmm0, %xmm13
	paddq	%xmm12, %xmm14
	psllq	$32, %xmm14
	paddq	%xmm14, %xmm13
	movdqa	%xmm11, %xmm14
	punpckldq	%xmm11, %xmm14
	paddq	%xmm9, %xmm13
	punpckhdq	%xmm11, %xmm11
	pmuludq	%xmm14, %xmm15
	psrlq	$31, %xmm13
	shufps	$136, %xmm13, %xmm4
	psubd	%xmm7, %xmm4
	pmuludq	%xmm11, %xmm3
	movdqa	%xmm4, %xmm9
	psrad	$31, %xmm9
	pand	%xmm7, %xmm9
	movdqa	%xmm15, %xmm13
	paddd	%xmm4, %xmm9
	movdqa	%xmm6, %xmm4
	psrlq	$32, %xmm13
	pmuludq	%xmm15, %xmm4
	movdqa	%xmm15, %xmm12
	pmuludq	%xmm1, %xmm13
	pmuludq	%xmm1, %xmm12
	paddq	%xmm4, %xmm13
	psllq	$32, %xmm13
	paddq	%xmm13, %xmm12
	pand	.LC10(%rip), %xmm12
	movdqa	%xmm12, %xmm13
	movdqa	%xmm12, %xmm4
	psrlq	$32, %xmm13
	pmuludq	%xmm5, %xmm12
	pmuludq	%xmm0, %xmm13
	pmuludq	%xmm0, %xmm4
	paddq	%xmm12, %xmm13
	movdqa	%xmm3, %xmm12
	psllq	$32, %xmm13
	pmuludq	%xmm1, %xmm12
	paddq	%xmm13, %xmm4
	movdqa	%xmm3, %xmm13
	paddq	%xmm15, %xmm4
	psrlq	$32, %xmm13
	movdqa	%xmm6, %xmm15
	pmuludq	%xmm3, %xmm15
	pmuludq	%xmm1, %xmm13
	psrlq	$31, %xmm4
	paddq	%xmm15, %xmm13
	psllq	$32, %xmm13
	paddq	%xmm13, %xmm12
	pand	.LC10(%rip), %xmm12
	movdqa	%xmm12, %xmm15
	movdqa	%xmm12, %xmm13
	psrlq	$32, %xmm15
	pmuludq	%xmm5, %xmm12
	pmuludq	%xmm0, %xmm15
	pmuludq	%xmm0, %xmm13
	paddq	%xmm12, %xmm15
	movdqa	%xmm10, %xmm12
	psllq	$32, %xmm15
	punpckldq	%xmm10, %xmm12
	punpckhdq	%xmm10, %xmm10
	pmuludq	%xmm14, %xmm12
	pmuludq	%xmm11, %xmm10
	paddq	%xmm15, %xmm13
	paddq	%xmm3, %xmm13
	movdqa	%xmm6, %xmm11
	psrlq	$31, %xmm13
	shufps	$136, %xmm13, %xmm4
	psubd	%xmm7, %xmm4
	movdqa	%xmm4, %xmm3
	psrad	$31, %xmm3
	pmuludq	%xmm12, %xmm11
	pand	%xmm7, %xmm3
	paddd	%xmm4, %xmm3
	pshufd	$85, %xmm3, %xmm4
	movd	%xmm3, 0(%rbp,%rax,4)
	movd	%xmm4, 16(%rbp,%rax,4)
	movdqa	%xmm3, %xmm4
	punpckhdq	%xmm3, %xmm4
	pshufd	$255, %xmm3, %xmm3
	movd	%xmm3, 48(%rbp,%rax,4)
	movdqa	%xmm12, %xmm3
	psrlq	$32, %xmm3
	movd	%xmm4, 32(%rbp,%rax,4)
	movdqa	%xmm12, %xmm4
	pmuludq	%xmm1, %xmm3
	pmuludq	%xmm1, %xmm4
	paddq	%xmm11, %xmm3
	psllq	$32, %xmm3
	paddq	%xmm3, %xmm4
	pand	.LC10(%rip), %xmm4
	movdqa	%xmm4, %xmm11
	movdqa	%xmm4, %xmm3
	psrlq	$32, %xmm11
	pmuludq	%xmm5, %xmm4
	pmuludq	%xmm0, %xmm11
	pmuludq	%xmm0, %xmm3
	paddq	%xmm4, %xmm11
	movdqa	%xmm10, %xmm4
	psllq	$32, %xmm11
	pmuludq	%xmm1, %xmm4
	paddq	%xmm11, %xmm3
	movdqa	%xmm10, %xmm11
	paddq	%xmm12, %xmm3
	psrlq	$32, %xmm11
	movdqa	%xmm6, %xmm12
	pmuludq	%xmm10, %xmm12
	pmuludq	%xmm1, %xmm11
	psrlq	$31, %xmm3
	paddq	%xmm12, %xmm11
	psllq	$32, %xmm11
	paddq	%xmm11, %xmm4
	pand	.LC10(%rip), %xmm4
	movdqa	%xmm4, %xmm12
	movdqa	%xmm4, %xmm11
	psrlq	$32, %xmm12
	pmuludq	%xmm5, %xmm4
	pmuludq	%xmm0, %xmm12
	pmuludq	%xmm0, %xmm11
	paddq	%xmm4, %xmm12
	movdqa	%xmm11, %xmm4
	movdqa	%xmm2, %xmm11
	psllq	$32, %xmm12
	punpckldq	%xmm2, %xmm11
	punpckhdq	%xmm2, %xmm2
	paddq	%xmm12, %xmm4
	movdqa	%xmm6, %xmm12
	paddq	%xmm10, %xmm4
	psrlq	$31, %xmm4
	shufps	$136, %xmm4, %xmm3
	movdqa	%xmm3, %xmm4
	psubd	%xmm7, %xmm4
	movdqa	%xmm4, %xmm3
	psrad	$31, %xmm3
	pand	%xmm7, %xmm3
	paddd	%xmm4, %xmm3
	pshufd	$85, %xmm3, %xmm4
	movd	%xmm3, (%rsi,%rax,4)
	movd	%xmm4, 16(%rsi,%rax,4)
	movdqa	%xmm3, %xmm4
	punpckhdq	%xmm3, %xmm4
	pshufd	$255, %xmm3, %xmm3
	movd	%xmm4, 32(%rsi,%rax,4)
	movdqa	%xmm9, %xmm4
	punpckldq	%xmm9, %xmm4
	movd	%xmm3, 48(%rsi,%rax,4)
	punpckhdq	%xmm9, %xmm9
	pmuludq	%xmm4, %xmm11
	pmuludq	%xmm9, %xmm2
	movdqa	%xmm11, %xmm3
	pmuludq	%xmm11, %xmm12
	movdqa	%xmm11, %xmm10
	psrlq	$32, %xmm3
	pmuludq	%xmm1, %xmm10
	pmuludq	%xmm1, %xmm3
	paddq	%xmm12, %xmm3
	psllq	$32, %xmm3
	paddq	%xmm3, %xmm10
	pand	.LC10(%rip), %xmm10
	movdqa	%xmm10, %xmm12
	movdqa	%xmm10, %xmm3
	psrlq	$32, %xmm12
	pmuludq	%xmm5, %xmm10
	pmuludq	%xmm0, %xmm12
	pmuludq	%xmm0, %xmm3
	paddq	%xmm10, %xmm12
	movdqa	%xmm2, %xmm10
	psllq	$32, %xmm12
	pmuludq	%xmm1, %xmm10
	paddq	%xmm12, %xmm3
	movdqa	%xmm6, %xmm12
	paddq	%xmm11, %xmm3
	pmuludq	%xmm2, %xmm12
	movdqa	%xmm2, %xmm11
	psrlq	$32, %xmm11
	psrlq	$31, %xmm3
	pmuludq	%xmm1, %xmm11
	paddq	%xmm12, %xmm11
	psllq	$32, %xmm11
	paddq	%xmm11, %xmm10
	pand	.LC10(%rip), %xmm10
	movdqa	%xmm10, %xmm12
	movdqa	%xmm10, %xmm11
	psrlq	$32, %xmm12
	pmuludq	%xmm5, %xmm10
	pmuludq	%xmm0, %xmm12
	pmuludq	%xmm0, %xmm11
	paddq	%xmm10, %xmm12
	movdqa	%xmm11, %xmm10
	psllq	$32, %xmm12
	paddq	%xmm12, %xmm10
	paddq	%xmm10, %xmm2
	movdqa	%xmm8, %xmm10
	psrlq	$31, %xmm2
	punpckldq	%xmm8, %xmm10
	punpckhdq	%xmm8, %xmm8
	shufps	$136, %xmm2, %xmm3
	psubd	%xmm7, %xmm3
	pmuludq	%xmm4, %xmm10
	movdqa	%xmm3, %xmm2
	pmuludq	%xmm9, %xmm8
	psrad	$31, %xmm2
	pand	%xmm7, %xmm2
	paddd	%xmm3, %xmm2
	pshufd	$85, %xmm2, %xmm3
	movd	%xmm2, (%rcx,%rax,4)
	movdqa	%xmm10, %xmm4
	movd	%xmm3, 16(%rcx,%rax,4)
	movdqa	%xmm2, %xmm3
	psrlq	$32, %xmm4
	movdqa	%xmm8, %xmm9
	pmuludq	%xmm1, %xmm4
	psrlq	$32, %xmm9
	punpckhdq	%xmm2, %xmm3
	pshufd	$255, %xmm2, %xmm2
	movd	%xmm3, 32(%rcx,%rax,4)
	movdqa	%xmm1, %xmm3
	movd	%xmm2, 48(%rcx,%rax,4)
	movdqa	%xmm6, %xmm2
	pmuludq	%xmm10, %xmm3
	pmuludq	%xmm10, %xmm2
	pmuludq	%xmm1, %xmm9
	paddq	%xmm4, %xmm2
	psllq	$32, %xmm2
	paddq	%xmm2, %xmm3
	pand	.LC10(%rip), %xmm3
	movdqa	%xmm3, %xmm4
	movdqa	%xmm3, %xmm2
	psrlq	$32, %xmm4
	pmuludq	%xmm5, %xmm3
	pmuludq	%xmm0, %xmm4
	pmuludq	%xmm0, %xmm2
	paddq	%xmm3, %xmm4
	movdqa	%xmm1, %xmm3
	psllq	$32, %xmm4
	pmuludq	%xmm8, %xmm3
	paddq	%xmm4, %xmm2
	movdqa	%xmm6, %xmm4
	pmuludq	%xmm8, %xmm4
	paddq	%xmm10, %xmm2
	psrlq	$31, %xmm2
	paddq	%xmm9, %xmm4
	psllq	$32, %xmm4
	paddq	%xmm4, %xmm3
	pand	.LC10(%rip), %xmm3
	movdqa	%xmm3, %xmm9
	movdqa	%xmm3, %xmm4
	psrlq	$32, %xmm9
	pmuludq	%xmm5, %xmm3
	pmuludq	%xmm0, %xmm9
	pmuludq	%xmm0, %xmm4
	paddq	%xmm3, %xmm9
	psllq	$32, %xmm9
	paddq	%xmm9, %xmm4
	movdqa	%xmm4, %xmm3
	paddq	%xmm8, %xmm3
	psrlq	$31, %xmm3
	shufps	$136, %xmm3, %xmm2
	psubd	%xmm7, %xmm2
	movdqa	%xmm2, %xmm3
	psrad	$31, %xmm2
	pand	%xmm7, %xmm2
	paddd	%xmm3, %xmm2
	pshufd	$85, %xmm2, %xmm3
	movd	%xmm2, (%rdx,%rax,4)
	movd	%xmm3, 16(%rdx,%rax,4)
	movdqa	%xmm2, %xmm3
	punpckhdq	%xmm2, %xmm3
	pshufd	$255, %xmm2, %xmm2
	movd	%xmm3, 32(%rdx,%rax,4)
	movd	%xmm2, 48(%rdx,%rax,4)
	addq	$16, %rax
	cmpq	%rax, %r9
	jne	.L372
	movq	544(%rsp), %rax
	movq	168(%rsp), %rsi
	movq	560(%rsp), %rdi
	leaq	0(%rbp,%rax), %rcx
	addq	%rax, %rsi
	cmpq	%rdi, 552(%rsp)
	je	.L374
	movq	776(%rsp), %r9
	movq	136(%rsp), %r8
	movq	784(%rsp), %rax
	movq	800(%rsp), %r11
	movl	(%r9), %edx
	movq	792(%rsp), %rdi
	movl	(%rax), %eax
	movl	(%r11), %r11d
	imulq	%r8, %rdx
	movl	(%rdi), %edi
	movl	%eax, 16(%rsp)
	movl	%r11d, 808(%rsp)
	movq	144(%rsp), %r11
	movq	%rdx, %rax
	movl	%edi, 80(%rsp)
	imulq	%r10, %rax
	andl	$2147483647, %eax
	imulq	%r11, %rax
	addq	%rdx, %rax
	shrq	$31, %rax
	movl	%eax, %edi
	subl	%r13d, %edi
	movl	%edi, %eax
	sarl	$31, %eax
	andl	%r13d, %eax
	movl	%eax, %r9d
	movq	768(%rsp), %rax
	addl	%r9d, %edi
	movq	816(%rsp), %r9
	movl	(%rax), %edx
	movl	%edi, %edi
	imulq	%r8, %rdx
	movq	%rdx, %rax
	imulq	%r10, %rax
	andl	$2147483647, %eax
	imulq	%r11, %rax
	addq	%rdx, %rax
	movl	(%r9), %edx
	movq	144(%rsp), %r9
	shrq	$31, %rax
	imulq	%rdi, %rdx
	subl	%r13d, %eax
	movl	%eax, %r8d
	sarl	$31, %eax
	andl	%r13d, %eax
	movl	%eax, %r11d
	movq	%rdx, %rax
	imulq	%r10, %rax
	andl	$2147483647, %eax
	imulq	%r9, %rax
	addq	%rdx, %rax
	shrq	$31, %rax
	subl	%r13d, %eax
	cltd
	andl	%r13d, %edx
	addl	%edx, %eax
	movl	808(%rsp), %edx
	movl	%eax, (%rcx)
	movq	%r10, %rax
	imulq	%rdi, %rdx
	leal	(%r8,%r11), %edi
	imulq	%rdx, %rax
	andl	$2147483647, %eax
	imulq	%r9, %rax
	addq	%rdx, %rax
	shrq	$31, %rax
	subl	%r13d, %eax
	cltd
	andl	%r13d, %edx
	addl	%edx, %eax
	movl	80(%rsp), %edx
	movl	%eax, 8(%rcx)
	imulq	%rdi, %rdx
	movq	%rdx, %rax
	imulq	%r10, %rax
	andl	$2147483647, %eax
	imulq	%r9, %rax
	addq	%rdx, %rax
	shrq	$31, %rax
	subl	%r13d, %eax
	cltd
	andl	%r13d, %edx
	addl	%eax, %edx
	movl	%edx, (%rsi)
	movl	16(%rsp), %edx
	imulq	%rdi, %rdx
	movq	%r9, %rdi
	movq	%rdx, %rax
	imulq	%r10, %rax
	andl	$2147483647, %eax
	imulq	%r9, %rax
	addq	%rdx, %rax
	shrq	$31, %rax
	subl	%r13d, %eax
	cltd
	andl	%r13d, %edx
	addl	%eax, %edx
	movl	%edx, 8(%rsi)
	movq	824(%rsp), %rdx
	cmpq	%rdx, 8(%rsp)
	jbe	.L374
	movq	920(%rsp), %r9
	movq	832(%rsp), %rdx
	movq	136(%rsp), %r8
	movq	912(%rsp), %r11
	movl	(%r9), %r9d
	movl	(%rdx), %edx
	movl	(%r11), %r11d
	movl	%r9d, 808(%rsp)
	movq	896(%rsp), %r9
	movl	%edx, 16(%rsp)
	movl	(%r9), %edx
	movl	%r11d, 80(%rsp)
	imulq	%r8, %rdx
	movq	%rdx, %r11
	imulq	%r10, %r11
	movq	%r11, %rax
	movq	%rdi, %r11
	andl	$2147483647, %eax
	imulq	%rdi, %rax
	addq	%rdx, %rax
	shrq	$31, %rax
	movl	%eax, %edi
	subl	%r13d, %edi
	movl	%edi, %edx
	sarl	$31, %edx
	movl	%edx, %r9d
	movq	840(%rsp), %rdx
	andl	%r13d, %r9d
	movl	(%rdx), %edx
	addl	%r9d, %edi
	movq	904(%rsp), %r9
	movl	%edi, %edi
	imulq	%r8, %rdx
	movq	%rdx, %rax
	imulq	%r10, %rax
	andl	$2147483647, %eax
	imulq	%r11, %rax
	addq	%rdx, %rax
	shrq	$31, %rax
	movl	%eax, %edx
	subl	%r13d, %edx
	movl	%edx, %r8d
	sarl	$31, %edx
	andl	%r13d, %edx
	movl	%edx, %r11d
	movl	(%r9), %edx
	imulq	%rdi, %rdx
	movq	%rdx, %r9
	imulq	%r10, %r9
	movq	%r9, %rax
	movq	144(%rsp), %r9
	andl	$2147483647, %eax
	imulq	%r9, %rax
	addq	%rdx, %rax
	shrq	$31, %rax
	subl	%r13d, %eax
	cltd
	andl	%r13d, %edx
	addl	%edx, %eax
	movl	808(%rsp), %edx
	movl	%eax, 16(%rcx)
	imulq	%rdi, %rdx
	movq	%rdx, %rdi
	imulq	%r10, %rdi
	movq	%rdi, %rax
	leal	(%r8,%r11), %edi
	andl	$2147483647, %eax
	imulq	%r9, %rax
	addq	%rdx, %rax
	shrq	$31, %rax
	subl	%r13d, %eax
	cltd
	andl	%r13d, %edx
	addl	%edx, %eax
	movl	80(%rsp), %edx
	movl	%eax, 24(%rcx)
	imulq	%rdi, %rdx
	movq	%rdx, %r11
	imulq	%r10, %r11
	movq	%r11, %rax
	andl	$2147483647, %eax
	imulq	%r9, %rax
	addq	%rdx, %rax
	shrq	$31, %rax
	subl	%r13d, %eax
	cltd
	andl	%r13d, %edx
	addl	%edx, %eax
	movl	16(%rsp), %edx
	movl	%eax, 16(%rsi)
	imulq	%rdi, %rdx
	movq	%rdx, %rdi
	imulq	%r10, %rdi
	movq	%rdi, %rax
	movq	%r9, %rdi
	andl	$2147483647, %eax
	imulq	%r9, %rax
	addq	%rdx, %rax
	shrq	$31, %rax
	subl	%r13d, %eax
	cltd
	andl	%r13d, %edx
	addl	%edx, %eax
	movq	952(%rsp), %rdx
	movl	%eax, 24(%rsi)
	cmpq	%rdx, 8(%rsp)
	jbe	.L374
	movq	880(%rsp), %rdx
	movq	856(%rsp), %r9
	movq	136(%rsp), %r8
	movq	888(%rsp), %rax
	movl	(%rdx), %edx
	movq	872(%rsp), %r11
	movl	(%rax), %eax
	movl	%edx, 80(%rsp)
	movl	(%r9), %edx
	movl	%eax, 808(%rsp)
	movl	(%r11), %r11d
	imulq	%r8, %rdx
	movl	%r11d, 16(%rsp)
	movq	%rdi, %r11
	movq	%rdx, %rax
	imulq	%r10, %rax
	andl	$2147483647, %eax
	imulq	%rdi, %rax
	addq	%rdx, %rax
	movq	848(%rsp), %rdx
	shrq	$31, %rax
	movl	(%rdx), %edx
	movl	%eax, %edi
	subl	%r13d, %edi
	imulq	%r8, %rdx
	movl	%edi, %eax
	sarl	$31, %eax
	andl	%r13d, %eax
	movl	%eax, %r9d
	movq	%rdx, %rax
	imulq	%r10, %rax
	addl	%r9d, %edi
	movq	864(%rsp), %r9
	movl	%edi, %edi
	andl	$2147483647, %eax
	imulq	%r11, %rax
	addq	%rdx, %rax
	movl	(%r9), %edx
	movq	144(%rsp), %r9
	shrq	$31, %rax
	movl	%eax, %r8d
	imulq	%rdi, %rdx
	subl	%r13d, %r8d
	movl	%r8d, %eax
	sarl	$31, %eax
	andl	%r13d, %eax
	movl	%eax, %r11d
	movq	%rdx, %rax
	imulq	%r10, %rax
	andl	$2147483647, %eax
	imulq	%r9, %rax
	addq	%rdx, %rax
	shrq	$31, %rax
	subl	%r13d, %eax
	cltd
	andl	%r13d, %edx
	addl	%eax, %edx
	movl	%edx, 32(%rcx)
	movl	16(%rsp), %edx
	imulq	%rdi, %rdx
	movq	%rdx, %rax
	imulq	%r10, %rax
	andl	$2147483647, %eax
	imulq	%r9, %rax
	addq	%rdx, %rax
	shrq	$31, %rax
	subl	%r13d, %eax
	cltd
	andl	%r13d, %edx
	addl	%eax, %edx
	movl	%edx, 40(%rcx)
	movl	80(%rsp), %edx
	leal	(%r11,%r8), %ecx
	imulq	%rcx, %rdx
	movq	%rdx, %rax
	imulq	%r10, %rax
	andl	$2147483647, %eax
	imulq	%r9, %rax
	addq	%rdx, %rax
	shrq	$31, %rax
	subl	%r13d, %eax
	cltd
	andl	%r13d, %edx
	addl	%eax, %edx
	movq	%r10, %rax
	movl	%edx, 32(%rsi)
	movl	808(%rsp), %edx
	imulq	%rcx, %rdx
	imulq	%rdx, %rax
	andl	$2147483647, %eax
	imulq	%r9, %rax
	addq	%rdx, %rax
	shrq	$31, %rax
	subl	%r13d, %eax
	cltd
	andl	%r13d, %edx
	addl	%edx, %eax
	movl	%eax, 40(%rsi)
.L374:
	movl	36(%rsp), %ecx
	testl	%ecx, %ecx
	je	.L526
.L370:
	movl	48(%rsp), %r8d
	movl	36(%rsp), %edx
	movl	%r13d, %ecx
	movq	%rbp, %rdi
	movq	208(%rsp), %rsi
	call	modp_iNTT2_ext.part.0.constprop.1
	movl	48(%rsp), %r8d
	movl	%r13d, %ecx
	movl	36(%rsp), %edx
	movq	208(%rsp), %rsi
	movq	168(%rsp), %rdi
	call	modp_iNTT2_ext.part.0.constprop.1
	cmpq	$0, 224(%rsp)
	je	.L377
.L384:
	addq	$12, 264(%rsp)
	addq	$4, 192(%rsp)
	addq	$4, 104(%rsp)
	addq	$4, 400(%rsp)
	addq	$4, 392(%rsp)
	cmpq	$1, 224(%rsp)
	je	.L527
	movq	264(%rsp), %rax
	movq	$1, 224(%rsp)
	movl	(%rax), %r13d
	jmp	.L390
.L527:
	movq	112(%rsp), %r12
	movq	40(%rsp), %rbx
	movq	200(%rsp), %r15
	movl	$2147473409, (%r12)
	addq	%rbx, %rbx
	je	.L391
	movl	$2147473409, %edi
	xorl	%edx, %edx
	movabsq	$877837101815792415, %rcx
	jmp	.L393
	.p2align 4,,10
	.p2align 3
.L528:
	movl	(%r12), %edi
.L393:
	movl	(%r15,%rdx,8), %esi
	leal	-2147389441(%rsi), %eax
	sarl	$31, %eax
	andl	$2147389441, %eax
	leal	188414(%rsi,%rax), %r8d
	movl	4(%r15,%rdx,8), %eax
	subl	%r8d, %eax
	sarl	$31, %r8d
	andl	$2147389441, %r8d
	subl	%r8d, %eax
	movl	%eax, %r8d
	sarl	$31, %r8d
	andl	$2147389441, %r8d
	addl	%eax, %r8d
	movl	%r8d, %r8d
	movq	%r8, %rax
	imulq	$471403745, %r8, %r8
	imulq	%rcx, %rax
	andl	$2147483647, %eax
	imulq	$2147389441, %rax, %rax
	addq	%r8, %rax
	shrq	$31, %rax
	subl	$2147389441, %eax
	movl	%eax, %r8d
	sarl	$31, %r8d
	andl	$2147389441, %r8d
	addl	%r8d, %eax
	movl	%eax, %eax
	imulq	%rdi, %rax
	addq	%rsi, %rax
	movl	%eax, %edi
	shrq	$31, %rax
	andl	$2147483647, %edi
	movd	%eax, %xmm6
	movd	%edi, %xmm0
	punpckldq	%xmm6, %xmm0
	movq	%xmm0, (%r15,%rdx,8)
	addq	$1, %rdx
	cmpq	%rdx, %rbx
	jne	.L528
	movl	(%r12), %eax
	xorl	%edx, %edx
	imulq	$2147389441, %rax, %rax
	movl	%eax, %r11d
	shrq	$31, %rax
	andl	$2147483647, %r11d
	movd	%eax, %xmm6
	movl	%eax, %r9d
	movd	%r11d, %xmm0
	punpckldq	%xmm6, %xmm0
	movq	%xmm0, (%r12)
	jmp	.L425
	.p2align 4,,10
	.p2align 3
.L394:
	movl	4(%r12), %r9d
	movl	(%r12), %r11d
.L425:
	movl	4(%r15,%rdx,8), %esi
	movl	%r9d, %edi
	movl	%r9d, %r8d
	shrl	%edi
	sall	$30, %r8d
	movl	%edi, %eax
	movl	%esi, %ecx
	andl	$1073741824, %r8d
	subl	%edi, %ecx
	subl	%esi, %eax
	movl	(%r15,%rdx,8), %edi
	sarl	$31, %eax
	shrl	$31, %ecx
	orl	%eax, %ecx
	movl	%r11d, %eax
	shrl	%eax
	orl	%eax, %r8d
	movl	%edi, %eax
	movl	%r8d, %r10d
	subl	%r8d, %eax
	movl	%ecx, %r8d
	subl	%edi, %r10d
	shrl	$31, %eax
	andl	$1, %r8d
	sarl	$31, %r10d
	subl	$1, %r8d
	orl	%r10d, %eax
	andl	%r8d, %eax
	movl	%edi, %r8d
	subl	%r11d, %r8d
	orl	%ecx, %eax
	movl	%r8d, %ecx
	sarl	$31, %eax
	andl	$2147483647, %ecx
	shrl	$31, %r8d
	xorl	%edi, %ecx
	andl	%eax, %ecx
	xorl	%edi, %ecx
	movl	%ecx, (%r15,%rdx,8)
	movl	%esi, %ecx
	subl	%r9d, %ecx
	subl	%r8d, %ecx
	andl	$2147483647, %ecx
	xorl	%esi, %ecx
	andl	%ecx, %eax
	xorl	%esi, %eax
	movl	%eax, 4(%r15,%rdx,8)
	addq	$1, %rdx
	cmpq	%rdx, %rbx
	jne	.L394
	movq	240(%rsp), %rdi
	movl	$2147473409, (%r12)
	movl	$1073736704, %eax
	leaq	-1(%rbx), %rsi
	movl	(%rdi), %ecx
	leal	-2147473409(%rcx), %edx
	subl	%ecx, %eax
	andl	$2147483647, %edx
	sarl	$31, %eax
	xorl	%ecx, %edx
	andl	%edx, %eax
	movq	1072(%rsp), %rdx
	xorl	%ecx, %eax
	movl	%eax, (%rdi)
	movq	472(%rsp), %rax
	addq	%rax, %rdx
	addq	$4, %rax
	leaq	(%rax,%rsi,4), %rcx
	cmpq	%rcx, %rdx
	setge	%cl
	addq	$4, %rdx
	cmpq	%rdx, %rax
	setge	%dl
	orb	%dl, %cl
	je	.L521
	leaq	-2(%rbx), %rdx
	cmpq	$2, %rdx
	jbe	.L521
	movd	(%r12), %xmm7
	movq	%rsi, %rcx
	addq	%r15, %rax
	xorl	%edx, %edx
	movdqa	.LC11(%rip), %xmm1
	shrq	$2, %rcx
	pxor	%xmm5, %xmm5
	movd	%xmm7, %edi
	pshufd	$0, %xmm7, %xmm6
	shrl	%edi
	movd	%edi, %xmm4
	pshufd	$0, %xmm4, %xmm4
.L396:
	movdqu	(%rax), %xmm3
	movdqa	%xmm4, %xmm0
	addq	$1, %rdx
	addq	$16, %rax
	movdqa	%xmm3, %xmm2
	psubd	%xmm3, %xmm0
	psubd	%xmm4, %xmm2
	psrad	$31, %xmm0
	psrld	$31, %xmm2
	por	%xmm2, %xmm0
	movdqa	%xmm5, %xmm2
	psrld	$31, %xmm0
	psubd	%xmm0, %xmm2
	movdqa	%xmm3, %xmm0
	psubd	%xmm6, %xmm0
	pand	%xmm1, %xmm0
	pxor	%xmm3, %xmm0
	pand	%xmm2, %xmm0
	pxor	%xmm3, %xmm0
	movups	%xmm0, -16(%rax)
	cmpq	%rdx, %rcx
	jne	.L396
	movq	240(%rsp), %rdi
	movq	%rsi, %rax
	andq	$-4, %rax
	leaq	4(%rdi,%rax,4), %rdx
	cmpq	%rsi, %rax
	je	.L426
	movl	(%rdx), %edi
	movl	(%r12), %r8d
	movl	%edi, %esi
	movl	%r8d, %ecx
	shrl	%ecx
	subl	%r8d, %esi
	subl	%edi, %ecx
	andl	$2147483647, %esi
	sarl	$31, %ecx
	xorl	%edi, %esi
	andl	%esi, %ecx
	xorl	%edi, %ecx
	movl	%ecx, (%rdx)
	leaq	2(%rax), %rcx
	cmpq	%rcx, %rbx
	jbe	.L426
	movl	4(%rdx), %edi
	movl	(%r12), %r8d
	addq	$3, %rax
	movl	%r8d, %ecx
	movl	%edi, %esi
	shrl	%ecx
	subl	%r8d, %esi
	subl	%edi, %ecx
	andl	$2147483647, %esi
	sarl	$31, %ecx
	xorl	%edi, %esi
	andl	%esi, %ecx
	xorl	%edi, %ecx
	movl	%ecx, 4(%rdx)
	cmpq	%rax, %rbx
	jbe	.L426
	movl	8(%rdx), %esi
	movl	(%r12), %edi
	movl	%esi, %ecx
	movl	%edi, %eax
	shrl	%eax
	subl	%edi, %ecx
	subl	%esi, %eax
	andl	$2147483647, %ecx
	sarl	$31, %eax
	xorl	%esi, %ecx
	andl	%ecx, %eax
	xorl	%esi, %eax
	movl	%eax, 8(%rdx)
.L426:
	movq	%r12, %rax
	subq	%r15, %rax
	movq	%rax, %rdx
	andl	$7, %edx
	je	.L400
	addq	$8, %rax
	subq	%rdx, %rax
	leaq	(%r15,%rax), %r12
.L400:
	movzbl	36(%rsp), %ecx
	movl	$8, %eax
	salq	%cl, %rax
	cmpq	$2, 368(%rsp)
	movq	%rax, 8(%rsp)
	jbe	.L441
	movq	632(%rsp), %rdx
	xorl	%eax, %eax
	pxor	%xmm6, %xmm6
	movdqa	.LC11(%rip), %xmm1
	movdqa	.LC12(%rip), %xmm2
	movapd	.LC13(%rip), %xmm3
	pxor	%xmm5, %xmm5
	salq	$5, %rdx
.L402:
	movdqu	(%r15,%rax), %xmm7
	movdqu	16(%r15,%rax), %xmm4
	movdqa	%xmm6, %xmm8
	movdqa	%xmm7, %xmm10
	shufps	$136, %xmm4, %xmm7
	shufps	$221, %xmm4, %xmm10
	movdqa	%xmm10, %xmm0
	psrld	$30, %xmm0
	psubd	%xmm0, %xmm8
	movdqa	%xmm8, %xmm0
	movdqa	%xmm8, %xmm4
	psrld	$1, %xmm0
	pand	%xmm2, %xmm4
	pxor	%xmm0, %xmm7
	pxor	%xmm10, %xmm0
	paddd	%xmm4, %xmm7
	movdqa	%xmm7, %xmm4
	psrld	$31, %xmm7
	paddd	%xmm7, %xmm0
	pand	%xmm1, %xmm4
	pand	%xmm1, %xmm0
	movdqa	%xmm4, %xmm9
	movdqa	%xmm0, %xmm7
	pslld	$1, %xmm9
	pslld	$1, %xmm7
	pand	%xmm8, %xmm9
	pand	%xmm8, %xmm7
	psubd	%xmm9, %xmm4
	psubd	%xmm7, %xmm0
	cvtdq2pd	%xmm4, %xmm8
	pshufd	$238, %xmm4, %xmm4
	addpd	%xmm5, %xmm8
	cvtdq2pd	%xmm0, %xmm7
	pshufd	$238, %xmm0, %xmm0
	cvtdq2pd	%xmm4, %xmm4
	addpd	%xmm5, %xmm4
	mulpd	%xmm3, %xmm7
	cvtdq2pd	%xmm0, %xmm0
	mulpd	%xmm3, %xmm0
	addpd	%xmm8, %xmm7
	addpd	%xmm4, %xmm0
	movups	%xmm7, (%r12,%rax)
	movups	%xmm0, 16(%r12,%rax)
	addq	$32, %rax
	cmpq	%rax, %rdx
	jne	.L402
	movq	496(%rsp), %rax
	leaq	(%r15,%rax), %rcx
	movq	184(%rsp), %rax
	movq	%rax, %rsi
	cmpq	%rax, 40(%rsp)
	je	.L403
.L401:
	movl	4(%rcx), %r10d
	movl	(%rcx), %eax
	pxor	%xmm3, %xmm3
	pxor	%xmm2, %xmm2
	movsd	.LC1(%rip), %xmm1
	pxor	%xmm0, %xmm0
	movq	40(%rsp), %rbx
	movl	%r10d, %edi
	shrl	$30, %edi
	negl	%edi
	movl	%edi, %r9d
	movl	%edi, %edx
	shrl	%r9d
	andl	$1, %edx
	xorl	%r9d, %eax
	xorl	%r9d, %r10d
	leaq	0(,%rsi,8), %r9
	addl	%edx, %eax
	movl	%eax, %edx
	movl	%eax, %r8d
	addl	%eax, %eax
	shrl	$31, %edx
	andl	%edi, %eax
	andl	$2147483647, %r8d
	addl	%r10d, %edx
	subl	%eax, %r8d
	movl	%edx, %r10d
	cvtsi2sdl	%r8d, %xmm2
	leal	(%rdx,%rdx), %eax
	andl	%edi, %eax
	andl	$2147483647, %r10d
	subl	%eax, %r10d
	leaq	1(%rsi), %rax
	cvtsi2sdl	%r10d, %xmm3
	addsd	%xmm0, %xmm2
	mulsd	%xmm1, %xmm3
	addsd	%xmm3, %xmm2
	movsd	%xmm2, (%r12,%rsi,8)
	cmpq	%rax, %rbx
	jbe	.L404
	movl	12(%rcx), %r11d
	movl	8(%rcx), %edx
	pxor	%xmm2, %xmm2
	pxor	%xmm3, %xmm3
	addq	$2, %rsi
	movl	%r11d, %edi
	shrl	$30, %edi
	negl	%edi
	movl	%edi, %eax
	movl	%edi, %r8d
	shrl	%eax
	andl	$1, %r8d
	xorl	%eax, %edx
	xorl	%r11d, %eax
	addl	%r8d, %edx
	movl	%edx, %r8d
	movl	%edx, %r10d
	shrl	$31, %r8d
	andl	$2147483647, %r10d
	addl	%r8d, %eax
	movl	%eax, %r8d
	addl	%eax, %eax
	andl	%edi, %eax
	andl	$2147483647, %r8d
	subl	%eax, %r8d
	leal	(%rdx,%rdx), %eax
	cvtsi2sdl	%r8d, %xmm2
	andl	%edi, %eax
	subl	%eax, %r10d
	cvtsi2sdl	%r10d, %xmm3
	mulsd	%xmm1, %xmm2
	addsd	%xmm0, %xmm3
	addsd	%xmm3, %xmm2
	movsd	%xmm2, 8(%r12,%r9)
	cmpq	%rsi, %rbx
	jbe	.L404
	movl	20(%rcx), %edi
	movl	16(%rcx), %edx
	pxor	%xmm2, %xmm2
	pxor	%xmm3, %xmm3
	movl	%edi, %esi
	shrl	$30, %esi
	negl	%esi
	movl	%esi, %eax
	movl	%esi, %ecx
	shrl	%eax
	andl	$1, %ecx
	xorl	%eax, %edx
	xorl	%edi, %eax
	addl	%ecx, %edx
	movl	%edx, %edi
	movl	%edx, %ecx
	shrl	$31, %edi
	andl	$2147483647, %ecx
	addl	%edi, %eax
	movl	%eax, %edi
	addl	%eax, %eax
	andl	%esi, %eax
	andl	$2147483647, %edi
	subl	%eax, %edi
	leal	(%rdx,%rdx), %eax
	cvtsi2sdl	%edi, %xmm2
	andl	%esi, %eax
	subl	%eax, %ecx
	cvtsi2sdl	%ecx, %xmm3
	mulsd	%xmm1, %xmm2
	addsd	%xmm0, %xmm3
	addsd	%xmm3, %xmm2
	movsd	%xmm2, 16(%r12,%r9)
.L404:
	cmpq	$2, 368(%rsp)
	jbe	.L442
	movdqa	.LC11(%rip), %xmm1
	movdqa	.LC12(%rip), %xmm2
	movapd	.LC13(%rip), %xmm3
.L403:
	movq	8(%rsp), %rax
	movq	632(%rsp), %rdx
	pxor	%xmm6, %xmm6
	pxor	%xmm5, %xmm5
	movq	328(%rsp), %rcx
	leaq	(%r12,%rax), %rsi
	salq	$5, %rdx
	xorl	%eax, %eax
.L406:
	movdqu	(%rcx,%rax), %xmm7
	movdqu	16(%rcx,%rax), %xmm4
	movdqa	%xmm6, %xmm8
	movdqa	%xmm7, %xmm10
	shufps	$136, %xmm4, %xmm7
	shufps	$221, %xmm4, %xmm10
	movdqa	%xmm10, %xmm0
	psrld	$30, %xmm0
	psubd	%xmm0, %xmm8
	movdqa	%xmm8, %xmm0
	movdqa	%xmm8, %xmm4
	psrld	$1, %xmm0
	pand	%xmm2, %xmm4
	pxor	%xmm0, %xmm7
	pxor	%xmm10, %xmm0
	paddd	%xmm4, %xmm7
	movdqa	%xmm7, %xmm4
	psrld	$31, %xmm7
	paddd	%xmm7, %xmm0
	pand	%xmm1, %xmm4
	pand	%xmm1, %xmm0
	movdqa	%xmm4, %xmm9
	movdqa	%xmm0, %xmm7
	pslld	$1, %xmm9
	pslld	$1, %xmm7
	pand	%xmm8, %xmm9
	pand	%xmm8, %xmm7
	psubd	%xmm9, %xmm4
	psubd	%xmm7, %xmm0
	cvtdq2pd	%xmm4, %xmm8
	pshufd	$238, %xmm4, %xmm4
	addpd	%xmm5, %xmm8
	cvtdq2pd	%xmm0, %xmm7
	pshufd	$238, %xmm0, %xmm0
	cvtdq2pd	%xmm4, %xmm4
	addpd	%xmm5, %xmm4
	mulpd	%xmm3, %xmm7
	cvtdq2pd	%xmm0, %xmm0
	mulpd	%xmm3, %xmm0
	addpd	%xmm8, %xmm7
	addpd	%xmm4, %xmm0
	movups	%xmm7, (%rsi,%rax)
	movups	%xmm0, 16(%rsi,%rax)
	addq	$32, %rax
	cmpq	%rax, %rdx
	jne	.L406
	movq	496(%rsp), %rbx
	movq	184(%rsp), %rax
	addq	%rbx, 328(%rsp)
	cmpq	%rax, 40(%rsp)
	je	.L407
	movsd	.LC1(%rip), %xmm1
	movq	%rax, %rdx
	pxor	%xmm0, %xmm0
.L405:
	movq	328(%rsp), %rbx
	pxor	%xmm2, %xmm2
	pxor	%xmm3, %xmm3
	movq	40(%rsp), %r14
	leaq	(%rsi,%rdx,8), %rsi
	movl	4(%rbx), %r9d
	movl	(%rbx), %ecx
	movl	%r9d, %edi
	shrl	$30, %edi
	negl	%edi
	movl	%edi, %eax
	movl	%edi, %r8d
	shrl	%eax
	andl	$1, %r8d
	xorl	%eax, %ecx
	xorl	%r9d, %eax
	addl	%r8d, %ecx
	movl	%ecx, %r9d
	movl	%ecx, %r8d
	shrl	$31, %r9d
	andl	$2147483647, %r8d
	addl	%r9d, %eax
	movl	%eax, %r9d
	addl	%eax, %eax
	andl	%edi, %eax
	andl	$2147483647, %r9d
	subl	%eax, %r9d
	leal	(%rcx,%rcx), %eax
	andl	%edi, %eax
	cvtsi2sdl	%r9d, %xmm2
	subl	%eax, %r8d
	leaq	1(%rdx), %rax
	cvtsi2sdl	%r8d, %xmm3
	mulsd	%xmm1, %xmm2
	addsd	%xmm0, %xmm3
	addsd	%xmm3, %xmm2
	movsd	%xmm2, (%rsi)
	cmpq	%rax, %r14
	jbe	.L408
	movl	12(%rbx), %r10d
	movl	8(%rbx), %eax
	pxor	%xmm3, %xmm3
	pxor	%xmm2, %xmm2
	addq	$2, %rdx
	movl	%r10d, %ecx
	shrl	$30, %ecx
	negl	%ecx
	movl	%ecx, %r8d
	movl	%ecx, %edi
	shrl	%r8d
	andl	$1, %edi
	xorl	%r8d, %eax
	xorl	%r10d, %r8d
	addl	%edi, %eax
	movl	%eax, %r9d
	movl	%eax, %edi
	addl	%eax, %eax
	shrl	$31, %r9d
	andl	%ecx, %eax
	andl	$2147483647, %edi
	addl	%r9d, %r8d
	subl	%eax, %edi
	movl	%r8d, %r9d
	cvtsi2sdl	%edi, %xmm2
	leal	(%r8,%r8), %eax
	andl	$2147483647, %r9d
	andl	%ecx, %eax
	subl	%eax, %r9d
	cvtsi2sdl	%r9d, %xmm3
	addsd	%xmm0, %xmm2
	mulsd	%xmm1, %xmm3
	addsd	%xmm3, %xmm2
	movsd	%xmm2, 8(%rsi)
	cmpq	%rdx, %r14
	jbe	.L408
	movl	20(%rbx), %r8d
	movl	16(%rbx), %edx
	pxor	%xmm2, %xmm2
	movl	%r8d, %ecx
	shrl	$30, %ecx
	negl	%ecx
	movl	%ecx, %eax
	movl	%ecx, %edi
	shrl	%eax
	andl	$1, %edi
	xorl	%eax, %edx
	xorl	%r8d, %eax
	addl	%edi, %edx
	movl	%edx, %r8d
	movl	%edx, %edi
	shrl	$31, %r8d
	andl	$2147483647, %edi
	addl	%r8d, %eax
	movl	%eax, %r8d
	addl	%eax, %eax
	andl	%ecx, %eax
	andl	$2147483647, %r8d
	subl	%eax, %r8d
	leal	(%rdx,%rdx), %eax
	cvtsi2sdl	%r8d, %xmm2
	andl	%ecx, %eax
	subl	%eax, %edi
	mulsd	%xmm2, %xmm1
	pxor	%xmm2, %xmm2
	cvtsi2sdl	%edi, %xmm2
	addsd	%xmm2, %xmm0
	addsd	%xmm0, %xmm1
	movsd	%xmm1, 16(%rsi)
.L408:
	movq	8(%rsp), %rdx
	movq	240(%rsp), %rsi
	movq	%r15, %rdi
	call	memmove@PLT
	movq	248(%rsp), %rax
	leaq	(%r15,%rax), %rbx
	leaq	(%rbx,%rax), %rbp
	movq	%rbp, %rax
	subq	%r15, %rax
	movq	%rax, %rdx
	andl	$7, %edx
	jne	.L431
.L409:
	movzbl	36(%rsp), %ecx
	movl	$16, %eax
	movq	%r12, %rsi
	movq	%rbp, %rdi
	salq	%cl, %rax
	movq	%rax, %rdx
	movq	%rax, 48(%rsp)
	call	memmove@PLT
	movq	8(%rsp), %rax
	cmpq	$2, 368(%rsp)
	leaq	0(%rbp,%rax,2), %r12
	jbe	.L443
	movdqa	.LC11(%rip), %xmm1
	movdqa	.LC12(%rip), %xmm2
.L430:
	movq	336(%rsp), %rdx
	xorl	%eax, %eax
	pxor	%xmm5, %xmm5
	pxor	%xmm4, %xmm4
.L411:
	movdqu	(%r15,%rax), %xmm0
	movdqa	%xmm5, %xmm6
	movdqu	(%r15,%rax), %xmm7
	psrld	$30, %xmm0
	psubd	%xmm0, %xmm6
	movdqa	%xmm6, %xmm0
	movdqa	%xmm6, %xmm3
	psrld	$1, %xmm0
	pand	%xmm2, %xmm3
	pxor	%xmm7, %xmm0
	paddd	%xmm3, %xmm0
	pand	%xmm1, %xmm0
	movdqa	%xmm0, %xmm3
	pslld	$1, %xmm3
	pand	%xmm6, %xmm3
	psubd	%xmm3, %xmm0
	cvtdq2pd	%xmm0, %xmm3
	pshufd	$238, %xmm0, %xmm0
	addpd	%xmm4, %xmm3
	cvtdq2pd	%xmm0, %xmm0
	addpd	%xmm4, %xmm0
	movups	%xmm3, (%r12,%rax,2)
	movups	%xmm0, 16(%r12,%rax,2)
	addq	$16, %rax
	cmpq	%rax, %rdx
	jne	.L411
	movq	376(%rsp), %rax
	leaq	(%r15,%rax), %rsi
	movq	184(%rsp), %rax
	movq	%rax, %rcx
	cmpq	%rax, 40(%rsp)
	je	.L412
.L410:
	movl	(%rsi), %edx
	pxor	%xmm1, %xmm1
	pxor	%xmm0, %xmm0
	movq	40(%rsp), %r14
	movl	%edx, %r8d
	shrl	$30, %r8d
	negl	%r8d
	movl	%r8d, %eax
	shrl	%eax
	xorl	%edx, %eax
	movl	%r8d, %edx
	andl	$1, %edx
	addl	%edx, %eax
	leaq	0(,%rcx,8), %rdx
	movl	%eax, %edi
	addl	%eax, %eax
	andl	%r8d, %eax
	andl	$2147483647, %edi
	subl	%eax, %edi
	leaq	1(%rcx), %rax
	cvtsi2sdl	%edi, %xmm1
	addsd	%xmm0, %xmm1
	movsd	%xmm1, (%r12,%rcx,8)
	cmpq	%rax, %r14
	jbe	.L413
	movl	4(%rsi), %edi
	pxor	%xmm1, %xmm1
	addq	$2, %rcx
	movl	%edi, %r8d
	shrl	$30, %r8d
	negl	%r8d
	movl	%r8d, %eax
	shrl	%eax
	xorl	%edi, %eax
	movl	%r8d, %edi
	andl	$1, %edi
	addl	%edi, %eax
	movl	%eax, %edi
	addl	%eax, %eax
	andl	$2147483647, %edi
	andl	%r8d, %eax
	subl	%eax, %edi
	cvtsi2sdl	%edi, %xmm1
	addsd	%xmm0, %xmm1
	movsd	%xmm1, 8(%r12,%rdx)
	cmpq	%rcx, %r14
	jbe	.L413
	movl	8(%rsi), %esi
	pxor	%xmm1, %xmm1
	movl	%esi, %ecx
	shrl	$30, %ecx
	negl	%ecx
	movl	%ecx, %eax
	shrl	%eax
	xorl	%esi, %eax
	movl	%ecx, %esi
	andl	$1, %esi
	addl	%esi, %eax
	movl	%eax, %esi
	addl	%eax, %eax
	andl	$2147483647, %esi
	andl	%ecx, %eax
	subl	%eax, %esi
	cvtsi2sdl	%esi, %xmm1
	addsd	%xmm0, %xmm1
	movsd	%xmm1, 16(%r12,%rdx)
.L413:
	cmpq	$2, 368(%rsp)
	jbe	.L444
	movdqa	.LC11(%rip), %xmm1
	movdqa	.LC12(%rip), %xmm2
.L412:
	movq	8(%rsp), %rax
	movq	336(%rsp), %rcx
	pxor	%xmm5, %xmm5
	pxor	%xmm4, %xmm4
	leaq	(%r12,%rax), %rdx
	xorl	%eax, %eax
.L415:
	movdqu	(%rbx,%rax), %xmm0
	movdqa	%xmm5, %xmm6
	movdqu	(%rbx,%rax), %xmm7
	psrld	$30, %xmm0
	psubd	%xmm0, %xmm6
	movdqa	%xmm6, %xmm0
	movdqa	%xmm6, %xmm3
	psrld	$1, %xmm0
	pand	%xmm2, %xmm3
	pxor	%xmm7, %xmm0
	paddd	%xmm3, %xmm0
	pand	%xmm1, %xmm0
	movdqa	%xmm0, %xmm3
	pslld	$1, %xmm3
	pand	%xmm6, %xmm3
	psubd	%xmm3, %xmm0
	cvtdq2pd	%xmm0, %xmm3
	pshufd	$238, %xmm0, %xmm0
	addpd	%xmm4, %xmm3
	cvtdq2pd	%xmm0, %xmm0
	addpd	%xmm4, %xmm0
	movups	%xmm3, (%rdx,%rax,2)
	movups	%xmm0, 16(%rdx,%rax,2)
	addq	$16, %rax
	cmpq	%rax, %rcx
	jne	.L415
	movq	376(%rsp), %rcx
	movq	184(%rsp), %rsi
	addq	%rbx, %rcx
	cmpq	%rsi, 40(%rsp)
	je	.L416
	pxor	%xmm0, %xmm0
	movq	%rsi, %r14
.L414:
	movl	(%rcx), %esi
	pxor	%xmm1, %xmm1
	movq	40(%rsp), %r11
	leaq	(%rdx,%r14,8), %rdx
	movl	%esi, %edi
	shrl	$30, %edi
	negl	%edi
	movl	%edi, %eax
	shrl	%eax
	xorl	%esi, %eax
	movl	%edi, %esi
	andl	$1, %esi
	addl	%esi, %eax
	movl	%eax, %esi
	addl	%eax, %eax
	andl	%edi, %eax
	andl	$2147483647, %esi
	subl	%eax, %esi
	movq	416(%rsp), %rax
	cvtsi2sdl	%esi, %xmm1
	addsd	%xmm0, %xmm1
	movsd	%xmm1, (%rdx)
	cmpq	%rax, %r11
	jbe	.L416
	movl	4(%rcx), %edi
	pxor	%xmm1, %xmm1
	movl	%edi, %esi
	shrl	$30, %esi
	negl	%esi
	movl	%esi, %eax
	shrl	%eax
	xorl	%edi, %eax
	movl	%esi, %edi
	andl	$1, %edi
	addl	%edi, %eax
	movl	%eax, %edi
	addl	%eax, %eax
	andl	%esi, %eax
	andl	$2147483647, %edi
	subl	%eax, %edi
	movq	%r14, %rax
	cvtsi2sdl	%edi, %xmm1
	addq	$2, %rax
	addsd	%xmm0, %xmm1
	movsd	%xmm1, 8(%rdx)
	cmpq	%rax, %r11
	jbe	.L416
	movl	8(%rcx), %esi
	pxor	%xmm1, %xmm1
	movl	%esi, %ecx
	shrl	$30, %ecx
	negl	%ecx
	movl	%ecx, %eax
	shrl	%eax
	xorl	%esi, %eax
	movl	%ecx, %esi
	andl	$1, %esi
	addl	%esi, %eax
	movl	%eax, %esi
	addl	%eax, %eax
	andl	$2147483647, %esi
	andl	%ecx, %eax
	subl	%eax, %esi
	cvtsi2sdl	%esi, %xmm1
	addsd	%xmm0, %xmm1
	movsd	%xmm1, 16(%rdx)
.L416:
	movzbl	36(%rsp), %ecx
	movl	$32, %eax
	movq	%rbp, %rsi
	movq	%r15, %rdi
	salq	%cl, %rax
	movq	%rax, %rdx
	call	memmove@PLT
	movq	8(%rsp), %rsi
	movq	%r15, %rdi
	leaq	(%r15,%rsi), %r13
	movq	%r13, %rax
	addq	%rsi, %rax
	movq	%rax, %r14
	movq	%rax, 16(%rsp)
	addq	%rsi, %r14
	movl	36(%rsp), %esi
	call	falcon_inner_FFT@PLT
	movl	36(%rsp), %esi
	movq	%r13, %rdi
	movq	%r13, 64(%rsp)
	call	falcon_inner_FFT@PLT
	movl	36(%rsp), %r13d
	movq	16(%rsp), %rdi
	movl	%r13d, %esi
	call	falcon_inner_FFT@PLT
	movl	%r13d, %esi
	movq	%r14, %rdi
	movl	%r13d, 36(%rsp)
	call	falcon_inner_FFT@PLT
	movq	8(%rsp), %rsi
	movl	36(%rsp), %r9d
	movq	%r14, %r8
	movq	16(%rsp), %rcx
	movq	64(%rsp), %rdx
	leaq	(%r14,%rsi), %r13
	leaq	0(%r13,%rsi), %r10
	movq	%r13, %rdi
	movq	%r15, %rsi
	movq	%r10, 96(%rsp)
	call	falcon_inner_poly_add_muladj_fft@PLT
	movl	36(%rsp), %ecx
	movq	16(%rsp), %rsi
	movq	%r14, %rdx
	movq	96(%rsp), %rdi
	call	falcon_inner_poly_invnorm2_fft@PLT
	movl	36(%rsp), %edx
	movq	96(%rsp), %rsi
	movq	%r13, %rdi
	call	falcon_inner_poly_mul_autoadj_fft@PLT
	movl	36(%rsp), %esi
	movq	%r13, %rdi
	call	falcon_inner_iFFT@PLT
	movsd	.LC14(%rip), %xmm3
	xorl	%ecx, %ecx
	movsd	.LC15(%rip), %xmm4
	movsd	.LC16(%rip), %xmm1
	movq	40(%rsp), %rsi
	movabsq	$-4503599627370496, %r10
	movabsq	$4503599627370496, %r9
	movsd	.LC17(%rip), %xmm5
	.p2align 4,,10
	.p2align 3
.L420:
	movsd	0(%r13,%rcx,8), %xmm0
	comisd	%xmm0, %xmm3
	jbe	.L517
	comisd	%xmm4, %xmm0
	jbe	.L517
	movapd	%xmm0, %xmm2
	cvttsd2siq	%xmm0, %rdi
	addsd	%xmm1, %xmm2
	cvttsd2siq	%xmm2, %r8
	movapd	%xmm0, %xmm2
	subsd	%xmm5, %xmm0
	movq	%rdi, %rax
	subsd	%xmm1, %xmm2
	shrq	$52, %rax
	addl	$1, %eax
	cvttsd2siq	%xmm0, %r11
	andl	$4095, %eax
	pxor	%xmm0, %xmm0
	cvttsd2siq	%xmm2, %rdx
	addq	%r10, %r8
	subl	$2, %eax
	shrl	$31, %eax
	sarq	$63, %r11
	addq	%r9, %rdx
	xorq	%r8, %rdx
	andq	%r11, %rdx
	xorq	%r8, %rdx
	movq	%rax, %r8
	subq	$1, %rax
	negq	%r8
	andq	%rdi, %rax
	andq	%r8, %rdx
	orq	%rdx, %rax
	cvtsi2sdq	%rax, %xmm0
	movsd	%xmm0, 0(%r13,%rcx,8)
	addq	$1, %rcx
	cmpq	%rcx, %rsi
	jne	.L420
	movl	36(%rsp), %esi
	movq	%r13, %rdi
	call	falcon_inner_FFT@PLT
	movl	36(%rsp), %edx
	movq	16(%rsp), %rdi
	movq	%r13, %rsi
	call	falcon_inner_poly_mul_fft@PLT
	movl	36(%rsp), %edx
	movq	%r13, %rsi
	movq	%r14, %rdi
	call	falcon_inner_poly_mul_fft@PLT
	movl	36(%rsp), %r13d
	movq	16(%rsp), %rsi
	movq	%r15, %rdi
	movl	%r13d, %edx
	call	falcon_inner_poly_sub@PLT
	movq	%r14, %rsi
	movq	64(%rsp), %r14
	movl	%r13d, %edx
	movq	%r14, %rdi
	call	falcon_inner_poly_sub@PLT
	movl	%r13d, %esi
	movq	%r15, %rdi
	call	falcon_inner_iFFT@PLT
	movl	%r13d, %esi
	movq	%r14, %rdi
	call	falcon_inner_iFFT@PLT
	movq	48(%rsp), %rdx
	movq	%r15, %rsi
	movq	%rbp, %rdi
	call	memmove@PLT
	movq	.LC17(%rip), %rax
	movq	40(%rsp), %r8
	xorl	%ecx, %ecx
	movabsq	$-4503599627370496, %rdi
	subq	8(%rsp), %r12
	movabsq	$4503599627370496, %rsi
	movq	%rax, %xmm5
	movq	.LC16(%rip), %rax
	movq	%rax, %xmm1
.L421:
	movsd	0(%rbp,%rcx,8), %xmm0
	movapd	%xmm0, %xmm2
	cvttsd2siq	%xmm0, %r9
	addsd	%xmm1, %xmm2
	cvttsd2siq	%xmm2, %r10
	movapd	%xmm0, %xmm2
	subsd	%xmm5, %xmm0
	movq	%r9, %rax
	subsd	%xmm1, %xmm2
	shrq	$52, %rax
	addl	$1, %eax
	cvttsd2siq	%xmm0, %r11
	movsd	(%r12,%rcx,8), %xmm0
	andl	$4095, %eax
	cvttsd2siq	%xmm2, %rdx
	addq	%rdi, %r10
	subl	$2, %eax
	movapd	%xmm0, %xmm2
	shrl	$31, %eax
	addsd	%xmm1, %xmm2
	sarq	$63, %r11
	addq	%rsi, %rdx
	xorq	%r10, %rdx
	andq	%r11, %rdx
	xorq	%r10, %rdx
	movq	%rax, %r10
	subq	$1, %rax
	negq	%r10
	andq	%r9, %rax
	andq	%r10, %rdx
	cvttsd2siq	%xmm2, %r10
	movapd	%xmm0, %xmm2
	cvttsd2siq	%xmm0, %r9
	subsd	%xmm1, %xmm2
	orq	%rdx, %rax
	subsd	%xmm5, %xmm0
	movl	%eax, (%r15,%rcx,4)
	cvttsd2siq	%xmm2, %rdx
	subq	%rsi, %r10
	cvttsd2siq	%xmm0, %r11
	movq	%r9, %rax
	shrq	$52, %rax
	addl	$1, %eax
	andl	$4095, %eax
	addq	%rsi, %rdx
	xorq	%r10, %rdx
	subl	$2, %eax
	sarq	$63, %r11
	shrl	$31, %eax
	andq	%r11, %rdx
	xorq	%r10, %rdx
	movq	%rax, %r10
	subq	$1, %rax
	negq	%r10
	andq	%r9, %rax
	andq	%r10, %rdx
	orq	%rdx, %rax
	movl	%eax, (%rbx,%rcx,4)
	addq	$1, %rcx
	cmpq	%rcx, %r8
	jne	.L421
	movl	$1, %eax
	jmp	.L339
.L526:
	cmpq	$0, 224(%rsp)
	jne	.L384
	movq	104(%rsp), %rax
	movq	240(%rsp), %rcx
	movq	512(%rsp), %rdx
	addq	%rax, %rcx
	addq	%rax, %rdx
.L380:
	movq	120(%rsp), %rdi
	movq	128(%rsp), %r8
	xorl	%eax, %eax
.L388:
	movl	(%rdi,%rax,4), %esi
	movl	%esi, (%rcx,%rax,4)
	movl	(%r8,%rax,4), %esi
	movl	%esi, (%rdx,%rax,4)
	addq	$1, %rax
	cmpq	%rax, 40(%rsp)
	jne	.L388
	jmp	.L384
.L517:
	xorl	%eax, %eax
.L339:
	addq	$1672, %rsp
	.cfi_remember_state
	.cfi_def_cfa_offset 56
	popq	%rbx
	.cfi_def_cfa_offset 48
	popq	%rbp
	.cfi_def_cfa_offset 40
	popq	%r12
	.cfi_def_cfa_offset 32
	popq	%r13
	.cfi_def_cfa_offset 24
	popq	%r14
	.cfi_def_cfa_offset 16
	popq	%r15
	.cfi_def_cfa_offset 8
	ret
.L407:
	.cfi_restore_state
	movq	8(%rsp), %rdx
	movq	240(%rsp), %rsi
	movq	%r15, %rdi
	movaps	%xmm2, 48(%rsp)
	movaps	%xmm1, 16(%rsp)
	call	memmove@PLT
	movq	248(%rsp), %rax
	leaq	(%r15,%rax), %rbx
	leaq	(%rbx,%rax), %rbp
	movq	%rbp, %rax
	subq	%r15, %rax
	movq	%rax, %rdx
	andl	$7, %edx
	je	.L529
.L431:
	addq	$8, %rax
	subq	%rdx, %rax
	leaq	(%r15,%rax), %rbp
	jmp	.L409
.L434:
	movq	384(%rsp), %rcx
	movq	64(%rsp), %rdi
	xorl	%eax, %eax
	movq	216(%rsp), %rsi
	movq	408(%rsp), %r8
	movq	344(%rsp), %r9
.L349:
	movsbl	(%r8,%rax), %r10d
	movl	%r10d, %edx
	sarl	$31, %edx
	andl	%r13d, %edx
	addl	%r10d, %edx
	movl	%edx, (%rsi,%rax,4)
	movsbl	(%r9,%rax), %r10d
	movl	%r10d, %edx
	sarl	$31, %edx
	andl	%r13d, %edx
	addl	%r10d, %edx
	movl	%edx, (%rdi,%rax,4)
	addq	$1, %rax
	cmpq	%rax, %rcx
	jne	.L349
	jmp	.L352
.L437:
	movq	8(%rsp), %rcx
	movq	152(%rsp), %rsi
	xorl	%eax, %eax
	movq	160(%rsp), %rdi
	movq	168(%rsp), %r8
.L366:
	movl	0(%rbp,%rax,8), %edx
	movl	%edx, (%rsi,%rax,4)
	movl	(%r8,%rax,8), %edx
	movl	%edx, (%rdi,%rax,4)
	addq	$1, %rax
	cmpq	%rax, %rcx
	jne	.L366
	jmp	.L368
.L433:
	movq	%rbp, 16(%rsp)
	movq	104(%rsp), %rbp
	xorl	%esi, %esi
.L343:
	movl	4(%r15,%rsi,8), %edi
	movl	(%r15,%rsi,8), %r14d
	movl	%edi, %eax
	subl	%r8d, %r14d
	shrl	$30, %edi
	subl	%r8d, %eax
	negl	%edi
	movl	%eax, %r13d
	addl	%r10d, %eax
	andl	%ecx, %edi
	sarl	$31, %r13d
	andl	%r8d, %r13d
	addl	%r13d, %eax
	movl	%eax, %r13d
	sarl	$31, %r13d
	andl	%r8d, %r13d
	addl	%eax, %r13d
	movq	%rdx, %rax
	movl	%r13d, %r13d
	imulq	%rbx, %r13
	imulq	%r13, %rax
	andl	$2147483647, %eax
	imulq	%r11, %rax
	addq	%r13, %rax
	movl	%r14d, %r13d
	subl	%r8d, %r14d
	sarl	$31, %r13d
	shrq	$31, %rax
	andl	%r8d, %r13d
	subl	%r8d, %eax
	addl	%r14d, %r13d
	addl	%eax, %r13d
	sarl	$31, %eax
	andl	%r8d, %eax
	addl	%r13d, %eax
	movl	%eax, %r13d
	sarl	$31, %eax
	subl	%edi, %r13d
	andl	%r8d, %eax
	addl	%r13d, %eax
	movl	%eax, %edi
	sarl	$31, %edi
	andl	%r8d, %edi
	addl	%edi, %eax
	movl	%eax, 0(%rbp,%rsi,8)
	movl	4(%r9,%rsi,8), %edi
	movl	(%r9,%rsi,8), %r14d
	movl	%edi, %eax
	shrl	$30, %edi
	subl	%r8d, %eax
	subl	%r8d, %r14d
	negl	%edi
	movl	%eax, %r13d
	addl	%r10d, %eax
	andl	%ecx, %edi
	sarl	$31, %r13d
	andl	%r8d, %r13d
	addl	%r13d, %eax
	movl	%eax, %r13d
	sarl	$31, %r13d
	andl	%r8d, %r13d
	addl	%eax, %r13d
	movq	%rdx, %rax
	movl	%r13d, %r13d
	imulq	%rbx, %r13
	imulq	%r13, %rax
	andl	$2147483647, %eax
	imulq	%r11, %rax
	addq	%r13, %rax
	movl	%r14d, %r13d
	subl	%r8d, %r14d
	sarl	$31, %r13d
	shrq	$31, %rax
	andl	%r8d, %r13d
	subl	%r8d, %eax
	addl	%r14d, %r13d
	addl	%eax, %r13d
	sarl	$31, %eax
	andl	%r8d, %eax
	addl	%r13d, %eax
	movl	%eax, %r13d
	sarl	$31, %eax
	subl	%edi, %r13d
	andl	%r8d, %eax
	addl	%r13d, %eax
	movl	%eax, %edi
	sarl	$31, %edi
	andl	%r8d, %edi
	addl	%edi, %eax
	movl	%eax, (%r12,%rsi,8)
	addq	$1, %rsi
	cmpq	%rsi, 8(%rsp)
	jne	.L343
	movq	16(%rsp), %rbp
	jmp	.L346
.L438:
	movq	%rbp, 16(%rsp)
	movq	168(%rsp), %r11
	xorl	%ecx, %ecx
	movq	%r12, 808(%rsp)
	movq	144(%rsp), %r9
	movq	%r15, 1656(%rsp)
	movq	%r14, 80(%rsp)
	movq	128(%rsp), %r14
	movq	%rbx, 144(%rsp)
	movq	%rbp, %rbx
.L371:
	movq	120(%rsp), %rax
	movq	136(%rsp), %r15
	movl	(%r14,%rcx,8), %r8d
	movl	(%rax,%rcx,8), %esi
	movl	4(%rax,%rcx,8), %edi
	movq	152(%rsp), %rax
	movl	(%rax,%rcx,4), %edx
	imulq	%r15, %rdx
	movq	%rdx, %rax
	imulq	%r10, %rax
	andl	$2147483647, %eax
	imulq	%r9, %rax
	addq	%rax, %rdx
	movq	160(%rsp), %rax
	shrq	$31, %rdx
	subl	%r13d, %edx
	movl	(%rax,%rcx,4), %ebp
	movl	%edx, %r12d
	sarl	$31, %r12d
	imulq	%r15, %rbp
	movl	4(%r14,%rcx,8), %r15d
	andl	%r13d, %r12d
	addl	%edx, %r12d
	movl	%r12d, %r12d
	movq	%rbp, %rax
	imulq	%r12, %r15
	imulq	%r10, %rax
	imulq	%r12, %r8
	movq	%r15, %rdx
	imulq	%r10, %rdx
	andl	$2147483647, %eax
	imulq	%r9, %rax
	andl	$2147483647, %edx
	imulq	%r9, %rdx
	addq	%rbp, %rax
	shrq	$31, %rax
	subl	%r13d, %eax
	addq	%r15, %rdx
	movl	%eax, %ebp
	shrq	$31, %rdx
	sarl	$31, %ebp
	subl	%r13d, %edx
	andl	%r13d, %ebp
	movl	%edx, %r15d
	sarl	$31, %r15d
	andl	%r13d, %r15d
	addl	%edx, %r15d
	movq	%r8, %rdx
	imulq	%r10, %rdx
	movl	%r15d, (%rbx)
	andl	$2147483647, %edx
	imulq	%r9, %rdx
	addq	$1, %rcx
	addq	$16, %rbx
	addq	$16, %r11
	addq	%r8, %rdx
	shrq	$31, %rdx
	subl	%r13d, %edx
	movl	%edx, %r8d
	sarl	$31, %r8d
	andl	%r13d, %r8d
	addl	%edx, %r8d
	leal	0(%rbp,%rax), %edx
	imulq	%rdx, %rdi
	movl	%r8d, -8(%rbx)
	imulq	%rdx, %rsi
	movq	%rdi, %rax
	imulq	%r10, %rax
	andl	$2147483647, %eax
	imulq	%r9, %rax
	addq	%rdi, %rax
	shrq	$31, %rax
	subl	%r13d, %eax
	movl	%eax, %edi
	sarl	$31, %edi
	andl	%r13d, %edi
	addl	%eax, %edi
	movq	%rsi, %rax
	imulq	%r10, %rax
	movl	%edi, -16(%r11)
	andl	$2147483647, %eax
	imulq	%r9, %rax
	addq	%rsi, %rax
	shrq	$31, %rax
	subl	%r13d, %eax
	cltd
	andl	%r13d, %edx
	addl	%eax, %edx
	movl	%edx, -8(%r11)
	cmpq	%rcx, 8(%rsp)
	ja	.L371
	movq	16(%rsp), %rbp
	movq	80(%rsp), %r14
	movq	144(%rsp), %rbx
	movq	808(%rsp), %r12
	movq	1656(%rsp), %r15
	jmp	.L374
.L377:
	movl	36(%rsp), %ebp
	movl	48(%rsp), %r8d
	movl	%r13d, %ecx
	movq	208(%rsp), %rsi
	movq	120(%rsp), %rdi
	movl	%ebp, %edx
	call	modp_iNTT2_ext.part.0.constprop.0
	movl	48(%rsp), %r8d
	movl	%r13d, %ecx
	movl	%ebp, %edx
	movq	208(%rsp), %rsi
	movq	128(%rsp), %rdi
	call	modp_iNTT2_ext.part.0.constprop.0
	movq	104(%rsp), %rdi
	movq	240(%rsp), %rcx
	movq	512(%rsp), %rdx
	movq	1648(%rsp), %rsi
	movq	%rdi, %rax
	subq	488(%rsp), %rax
	addq	%rdi, %rcx
	movq	392(%rsp), %r11
	subq	$4, %rax
	leaq	-4(%rdi,%rsi), %rsi
	addq	%rdi, %rdx
	movq	192(%rsp), %rdi
	cmpq	$8, %rax
	seta	%al
	cmpq	$8, %rsi
	seta	%sil
	andl	%esi, %eax
	testl	%ebp, %ebp
	setne	%sil
	andl	%esi, %eax
	movq	944(%rsp), %rsi
	leaq	-4(%rsi,%rdi), %rsi
	cmpq	$8, %rsi
	seta	%sil
	andl	%esi, %eax
	leaq	16(%r11), %rsi
	cmpq	%rsi, 256(%rsp)
	setge	%sil
	cmpq	%r11, 936(%rsp)
	setle	%dil
	orl	%edi, %esi
	testb	%sil, %al
	je	.L380
	movq	400(%rsp), %rsi
	leaq	-4(%rsi), %rax
	subq	%r11, %rax
	cmpq	$8, %rax
	jbe	.L380
	cmpq	$2, 368(%rsp)
	jbe	.L439
	movq	200(%rsp), %rax
	movq	%rax, %rdi
	addq	%rsi, %rax
	movq	%rax, %rsi
	addq	%r11, %rdi
	xorl	%eax, %eax
.L382:
	movdqu	(%r15,%rax), %xmm6
	movups	%xmm6, (%rdi,%rax)
	movdqu	(%r12,%rax), %xmm7
	movups	%xmm7, (%rsi,%rax)
	addq	$16, %rax
	cmpq	%rax, 336(%rsp)
	jne	.L382
	movq	376(%rsp), %rax
	movq	40(%rsp), %rdi
	addq	%rax, %rcx
	addq	%rax, %rdx
	movq	184(%rsp), %rax
	cmpq	%rax, %rdi
	je	.L384
	subq	%rax, %rdi
	cmpq	$1, %rdi
	je	.L386
.L381:
	movq	504(%rsp), %r11
	leaq	0(,%rax,4), %rsi
	movq	352(%rsp), %r10
	movq	(%r15,%rsi), %r9
	leaq	(%r11,%rax), %r8
	movq	200(%rsp), %r11
	leaq	(%r11,%r8,4), %r8
	movq	%r9, (%r8,%r10)
	movq	(%r12,%rsi), %r8
	addq	%r11, %rsi
	movq	480(%rsp), %r11
	movq	%r8, (%rsi,%r11)
	movq	%rdi, %rsi
	andq	$-2, %rsi
	leaq	0(,%rsi,4), %r8
	addq	%rsi, %rax
	addq	%r8, %rcx
	addq	%r8, %rdx
	cmpq	%rdi, %rsi
	je	.L384
.L386:
	movq	120(%rsp), %rsi
	movl	(%rsi,%rax,4), %esi
	movl	%esi, (%rcx)
	movq	128(%rsp), %rsi
	movl	(%rsi,%rax,4), %eax
	movl	%eax, (%rdx)
	jmp	.L384
.L525:
	movl	176(%rsp), %eax
	testl	%eax, %eax
	je	.L370
	movl	48(%rsp), %r8d
	movq	112(%rsp), %rsi
	movl	%r13d, %ecx
	movl	176(%rsp), %edx
	movq	152(%rsp), %rdi
	call	modp_NTT2_ext.part.0.constprop.0
	movl	48(%rsp), %r8d
	movl	%r13d, %ecx
	movl	176(%rsp), %edx
	movq	112(%rsp), %rsi
	movq	160(%rsp), %rdi
	call	modp_NTT2_ext.part.0.constprop.0
	jmp	.L374
.L435:
	movq	216(%rsp), %r8
	xorl	%edi, %edi
.L356:
	movl	4(%r8,%rdi,8), %eax
	movl	(%r8,%rdi,8), %r9d
	imulq	%rax, %r9
	movq	%rdx, %rax
	imulq	%r9, %rax
	andl	$2147483647, %eax
	imulq	%rcx, %rax
	addq	%r9, %rax
	shrq	$31, %rax
	subl	%r13d, %eax
	movl	%eax, %r9d
	sarl	$31, %r9d
	andl	%r13d, %r9d
	addl	%eax, %r9d
	movq	%rdx, %rax
	movl	%r9d, %r9d
	imulq	%rsi, %r9
	imulq	%r9, %rax
	andl	$2147483647, %eax
	imulq	%rcx, %rax
	addq	%r9, %rax
	shrq	$31, %rax
	subl	%r13d, %eax
	movl	%eax, %r9d
	sarl	$31, %r9d
	andl	%r13d, %r9d
	addl	%r9d, %eax
	movl	%eax, (%r8,%rdi,4)
	addq	$1, %rdi
	cmpq	%rdi, 40(%rsp)
	jne	.L356
	cmpb	$0, 1023(%rsp)
	jne	.L530
.L436:
	movq	64(%rsp), %r8
	xorl	%edi, %edi
.L360:
	movl	4(%r8,%rdi,8), %eax
	movl	(%r8,%rdi,8), %r9d
	imulq	%rax, %r9
	movq	%rdx, %rax
	imulq	%r9, %rax
	andl	$2147483647, %eax
	imulq	%rcx, %rax
	addq	%r9, %rax
	shrq	$31, %rax
	subl	%r13d, %eax
	movl	%eax, %r9d
	sarl	$31, %r9d
	andl	%r13d, %r9d
	addl	%eax, %r9d
	movq	%rdx, %rax
	movl	%r9d, %r9d
	imulq	%rsi, %r9
	imulq	%r9, %rax
	andl	$2147483647, %eax
	imulq	%rcx, %rax
	addq	%r9, %rax
	shrq	$31, %rax
	subl	%r13d, %eax
	movl	%eax, %r9d
	sarl	$31, %r9d
	andl	%r13d, %r9d
	addl	%r9d, %eax
	movl	%eax, (%r8,%rdi,4)
	addq	$1, %rdi
	cmpq	%rdi, 40(%rsp)
	jne	.L360
	jmp	.L363
.L529:
	movzbl	36(%rsp), %ecx
	movl	$16, %eax
	movq	%r12, %rsi
	movq	%rbp, %rdi
	movdqa	48(%rsp), %xmm2
	salq	%cl, %rax
	movq	%rax, %rdx
	movaps	%xmm2, 64(%rsp)
	movq	%rax, 48(%rsp)
	call	memmove@PLT
	movq	8(%rsp), %rax
	movdqa	16(%rsp), %xmm1
	movdqa	64(%rsp), %xmm2
	leaq	0(%rbp,%rax,2), %r12
	jmp	.L430
.L521:
	movq	224(%rsp), %rcx
	movq	%rdi, %r8
.L398:
	movl	(%r8,%rcx,4), %esi
	movl	(%r12), %edi
	movl	%esi, %edx
	movl	%edi, %eax
	shrl	%eax
	subl	%edi, %edx
	subl	%esi, %eax
	andl	$2147483647, %edx
	sarl	$31, %eax
	xorl	%esi, %edx
	andl	%edx, %eax
	xorl	%esi, %eax
	movl	%eax, (%r8,%rcx,4)
	addq	$1, %rcx
	cmpq	%rcx, %rbx
	jne	.L398
	jmp	.L426
.L391:
	movl	$2147379202, 4(%r12)
	jmp	.L426
.L441:
	movq	%r15, %rcx
	xorl	%esi, %esi
	jmp	.L401
.L442:
	movq	8(%rsp), %rax
	xorl	%edx, %edx
	leaq	(%r12,%rax), %rsi
	jmp	.L405
.L443:
	movq	%r15, %rsi
	xorl	%ecx, %ecx
	jmp	.L410
.L444:
	movq	8(%rsp), %rax
	movq	%rbx, %rcx
	movq	$0, 184(%rsp)
	movq	$1, 416(%rsp)
	movq	184(%rsp), %r14
	leaq	(%r12,%rax), %rdx
	jmp	.L414
.L439:
	movq	40(%rsp), %rdi
	xorl	%eax, %eax
	jmp	.L381
	.cfi_endproc
.LFE5564:
	.size	solve_NTRU_binary_depth1, .-solve_NTRU_binary_depth1
	.p2align 4
	.type	make_fg, @function
make_fg:
.LFB5561:
	.cfi_startproc
	pushq	%r15
	.cfi_def_cfa_offset 16
	.cfi_offset 15, -16
	movq	%rdx, %r10
	movl	$1, %edx
	pushq	%r14
	.cfi_def_cfa_offset 24
	.cfi_offset 14, -24
	salq	%cl, %rdx
	movq	%rdi, %r14
	pushq	%r13
	.cfi_def_cfa_offset 32
	.cfi_offset 13, -32
	pushq	%r12
	.cfi_def_cfa_offset 40
	.cfi_offset 12, -40
	pushq	%rbp
	.cfi_def_cfa_offset 48
	.cfi_offset 6, -48
	pushq	%rbx
	.cfi_def_cfa_offset 56
	.cfi_offset 3, -56
	subq	$200, %rsp
	.cfi_def_cfa_offset 256
	movq	%rdi, 128(%rsp)
	movq	%rsi, %rdi
	movl	$4, %esi
	salq	%cl, %rsi
	movl	%ecx, 160(%rsp)
	leaq	(%r10,%rdx), %rcx
	leaq	(%r14,%rsi), %rbp
	cmpq	%rcx, %r14
	movl	%r8d, 164(%rsp)
	movl	%r9d, %r8d
	setnb	%al
	leaq	(%rdi,%rdx), %r9
	leaq	0(%rbp,%rsi), %r12
	cmpq	%r10, %rbp
	setbe	%r11b
	orl	%r11d, %eax
	cmpq	%rdi, %rbp
	setbe	%r11b
	cmpq	%r9, %r14
	setnb	%bl
	orl	%ebx, %r11d
	andl	%r11d, %eax
	leaq	-1(%rdx), %r11
	cmpq	$14, %r11
	seta	%r11b
	andl	%r11d, %eax
	leaq	-4(%rsi), %r11
	cmpq	$56, %r11
	seta	%r11b
	andl	%r11d, %eax
	cmpq	%r12, %rdi
	setnb	%r11b
	cmpq	%r9, %rbp
	setnb	%r9b
	orl	%r11d, %r9d
	testb	%r9b, %al
	je	.L599
	cmpq	%r12, %r10
	setnb	%al
	cmpq	%rcx, %rbp
	setnb	%cl
	orb	%cl, %al
	je	.L599
	movq	%rdx, %rcx
	movdqa	.LC18(%rip), %xmm2
	xorl	%eax, %eax
	movq	%r14, %r9
	andq	$-16, %rcx
	pxor	%xmm4, %xmm4
	pxor	%xmm3, %xmm3
.L533:
	movdqu	(%rdi,%rax), %xmm0
	movdqa	%xmm4, %xmm5
	movdqa	%xmm3, %xmm6
	pcmpgtb	%xmm0, %xmm5
	movdqa	%xmm0, %xmm1
	punpcklbw	%xmm5, %xmm1
	punpckhbw	%xmm5, %xmm0
	pcmpgtw	%xmm1, %xmm6
	movdqa	%xmm1, %xmm7
	punpcklwd	%xmm6, %xmm7
	punpckhwd	%xmm6, %xmm1
	movdqa	%xmm0, %xmm6
	movdqa	%xmm7, %xmm5
	psrad	$31, %xmm5
	pand	%xmm2, %xmm5
	paddd	%xmm7, %xmm5
	movups	%xmm5, (%r9,%rax,4)
	movdqa	%xmm1, %xmm5
	psrad	$31, %xmm5
	pand	%xmm2, %xmm5
	paddd	%xmm5, %xmm1
	movdqa	%xmm3, %xmm5
	pcmpgtw	%xmm0, %xmm5
	movups	%xmm1, 16(%r9,%rax,4)
	punpcklwd	%xmm5, %xmm6
	punpckhwd	%xmm5, %xmm0
	movdqa	%xmm4, %xmm5
	movdqa	%xmm6, %xmm1
	psrad	$31, %xmm1
	pand	%xmm2, %xmm1
	paddd	%xmm6, %xmm1
	movdqa	%xmm3, %xmm6
	movups	%xmm1, 32(%r9,%rax,4)
	movdqa	%xmm0, %xmm1
	psrad	$31, %xmm1
	pand	%xmm2, %xmm1
	paddd	%xmm1, %xmm0
	movups	%xmm0, 48(%r9,%rax,4)
	movdqu	(%r10,%rax), %xmm0
	pcmpgtb	%xmm0, %xmm5
	movdqa	%xmm0, %xmm1
	punpcklbw	%xmm5, %xmm1
	punpckhbw	%xmm5, %xmm0
	pcmpgtw	%xmm1, %xmm6
	movdqa	%xmm1, %xmm7
	punpcklwd	%xmm6, %xmm7
	punpckhwd	%xmm6, %xmm1
	movdqa	%xmm0, %xmm6
	movdqa	%xmm7, %xmm5
	psrad	$31, %xmm5
	pand	%xmm2, %xmm5
	paddd	%xmm7, %xmm5
	movups	%xmm5, 0(%rbp,%rax,4)
	movdqa	%xmm1, %xmm5
	psrad	$31, %xmm5
	pand	%xmm2, %xmm5
	paddd	%xmm5, %xmm1
	movdqa	%xmm3, %xmm5
	pcmpgtw	%xmm0, %xmm5
	movups	%xmm1, 16(%rbp,%rax,4)
	punpcklwd	%xmm5, %xmm6
	punpckhwd	%xmm5, %xmm0
	movdqa	%xmm6, %xmm1
	psrad	$31, %xmm1
	pand	%xmm2, %xmm1
	paddd	%xmm6, %xmm1
	movups	%xmm1, 32(%rbp,%rax,4)
	movdqa	%xmm0, %xmm1
	psrad	$31, %xmm1
	pand	%xmm2, %xmm1
	paddd	%xmm1, %xmm0
	movups	%xmm0, 48(%rbp,%rax,4)
	addq	$16, %rax
	cmpq	%rax, %rcx
	jne	.L533
	movq	%rdx, %rax
	andq	$-16, %rax
	testb	$15, %dl
	je	.L535
	movsbl	(%rdi,%rax), %r11d
	movq	128(%rsp), %rbx
	leaq	0(,%rax,4), %rcx
	movl	%r11d, %r9d
	sarl	$31, %r9d
	andl	$2147473409, %r9d
	addl	%r11d, %r9d
	movl	%r9d, (%rbx,%rax,4)
	movsbl	(%r10,%rax), %r11d
	movl	%r11d, %r9d
	sarl	$31, %r9d
	andl	$2147473409, %r9d
	addl	%r11d, %r9d
	movl	%r9d, 0(%rbp,%rax,4)
	leaq	1(%rax), %r9
	cmpq	%r9, %rdx
	jbe	.L535
	movsbl	1(%rdi,%rax), %r11d
	movl	%r11d, %r9d
	sarl	$31, %r9d
	andl	$2147473409, %r9d
	addl	%r11d, %r9d
	movl	%r9d, 4(%rbx,%rcx)
	movsbl	1(%r10,%rax), %r11d
	movl	%r11d, %r9d
	sarl	$31, %r9d
	andl	$2147473409, %r9d
	addl	%r11d, %r9d
	movl	%r9d, 4(%rbp,%rcx)
	leaq	2(%rax), %r9
	cmpq	%r9, %rdx
	jbe	.L535
	movsbl	2(%rdi,%rax), %r11d
	movl	%r11d, %r9d
	sarl	$31, %r9d
	andl	$2147473409, %r9d
	addl	%r11d, %r9d
	movl	%r9d, 8(%rbx,%rcx)
	movsbl	2(%r10,%rax), %r11d
	movl	%r11d, %r9d
	sarl	$31, %r9d
	andl	$2147473409, %r9d
	addl	%r11d, %r9d
	movl	%r9d, 8(%rbp,%rcx)
	leaq	3(%rax), %r9
	cmpq	%r9, %rdx
	jbe	.L535
	movsbl	3(%rdi,%rax), %r11d
	movl	%r11d, %r9d
	sarl	$31, %r9d
	andl	$2147473409, %r9d
	addl	%r11d, %r9d
	movl	%r9d, 12(%rbx,%rcx)
	movsbl	3(%r10,%rax), %r11d
	movl	%r11d, %r9d
	sarl	$31, %r9d
	andl	$2147473409, %r9d
	addl	%r11d, %r9d
	movl	%r9d, 12(%rbp,%rcx)
	leaq	4(%rax), %r9
	cmpq	%r9, %rdx
	jbe	.L535
	movsbl	4(%rdi,%rax), %r11d
	movl	%r11d, %r9d
	sarl	$31, %r9d
	andl	$2147473409, %r9d
	addl	%r11d, %r9d
	movl	%r9d, 16(%rbx,%rcx)
	movsbl	4(%r10,%rax), %r11d
	movl	%r11d, %r9d
	sarl	$31, %r9d
	andl	$2147473409, %r9d
	addl	%r11d, %r9d
	movl	%r9d, 16(%rbp,%rcx)
	leaq	5(%rax), %r9
	cmpq	%r9, %rdx
	jbe	.L535
	movsbl	5(%rdi,%rax), %r11d
	movl	%r11d, %r9d
	sarl	$31, %r9d
	andl	$2147473409, %r9d
	addl	%r11d, %r9d
	movl	%r9d, 20(%rbx,%rcx)
	movsbl	5(%r10,%rax), %r11d
	movl	%r11d, %r9d
	sarl	$31, %r9d
	andl	$2147473409, %r9d
	addl	%r11d, %r9d
	movl	%r9d, 20(%rbp,%rcx)
	leaq	6(%rax), %r9
	cmpq	%r9, %rdx
	jbe	.L535
	movsbl	6(%rdi,%rax), %r11d
	movl	%r11d, %r9d
	sarl	$31, %r9d
	andl	$2147473409, %r9d
	addl	%r11d, %r9d
	movl	%r9d, 24(%rbx,%rcx)
	movsbl	6(%r10,%rax), %r11d
	movl	%r11d, %r9d
	sarl	$31, %r9d
	andl	$2147473409, %r9d
	addl	%r11d, %r9d
	movl	%r9d, 24(%rbp,%rcx)
	leaq	7(%rax), %r9
	cmpq	%r9, %rdx
	jbe	.L535
	movsbl	7(%rdi,%rax), %r11d
	movl	%r11d, %r9d
	sarl	$31, %r9d
	andl	$2147473409, %r9d
	addl	%r11d, %r9d
	movl	%r9d, 28(%rbx,%rcx)
	movsbl	7(%r10,%rax), %r11d
	movl	%r11d, %r9d
	sarl	$31, %r9d
	andl	$2147473409, %r9d
	addl	%r11d, %r9d
	movl	%r9d, 28(%rbp,%rcx)
	leaq	8(%rax), %r9
	cmpq	%r9, %rdx
	jbe	.L535
	movsbl	8(%rdi,%rax), %r11d
	movl	%r11d, %r9d
	sarl	$31, %r9d
	andl	$2147473409, %r9d
	addl	%r11d, %r9d
	movl	%r9d, 32(%rbx,%rcx)
	movsbl	8(%r10,%rax), %r11d
	movl	%r11d, %r9d
	sarl	$31, %r9d
	andl	$2147473409, %r9d
	addl	%r11d, %r9d
	movl	%r9d, 32(%rbp,%rcx)
	leaq	9(%rax), %r9
	cmpq	%r9, %rdx
	jbe	.L535
	movsbl	9(%rdi,%rax), %r11d
	movl	%r11d, %r9d
	sarl	$31, %r9d
	andl	$2147473409, %r9d
	addl	%r11d, %r9d
	movl	%r9d, 36(%rbx,%rcx)
	movsbl	9(%r10,%rax), %r11d
	movl	%r11d, %r9d
	sarl	$31, %r9d
	andl	$2147473409, %r9d
	addl	%r11d, %r9d
	movl	%r9d, 36(%rbp,%rcx)
	leaq	10(%rax), %r9
	cmpq	%r9, %rdx
	jbe	.L535
	movsbl	10(%rdi,%rax), %r11d
	movl	%r11d, %r9d
	sarl	$31, %r9d
	andl	$2147473409, %r9d
	addl	%r11d, %r9d
	movl	%r9d, 40(%rbx,%rcx)
	movsbl	10(%r10,%rax), %r11d
	movl	%r11d, %r9d
	sarl	$31, %r9d
	andl	$2147473409, %r9d
	addl	%r11d, %r9d
	movl	%r9d, 40(%rbp,%rcx)
	leaq	11(%rax), %r9
	cmpq	%r9, %rdx
	jbe	.L535
	movsbl	11(%rdi,%rax), %r11d
	movl	%r11d, %r9d
	sarl	$31, %r9d
	andl	$2147473409, %r9d
	addl	%r11d, %r9d
	movl	%r9d, 44(%rbx,%rcx)
	movsbl	11(%r10,%rax), %r11d
	movl	%r11d, %r9d
	sarl	$31, %r9d
	andl	$2147473409, %r9d
	addl	%r11d, %r9d
	movl	%r9d, 44(%rbp,%rcx)
	leaq	12(%rax), %r9
	cmpq	%r9, %rdx
	jbe	.L535
	movsbl	12(%rdi,%rax), %r11d
	movl	%r11d, %r9d
	sarl	$31, %r9d
	andl	$2147473409, %r9d
	addl	%r11d, %r9d
	movl	%r9d, 48(%rbx,%rcx)
	movsbl	12(%r10,%rax), %r11d
	movl	%r11d, %r9d
	sarl	$31, %r9d
	andl	$2147473409, %r9d
	addl	%r11d, %r9d
	movl	%r9d, 48(%rbp,%rcx)
	leaq	13(%rax), %r9
	cmpq	%r9, %rdx
	jbe	.L535
	movsbl	13(%rdi,%rax), %r11d
	movl	%r11d, %r9d
	sarl	$31, %r9d
	andl	$2147473409, %r9d
	addl	%r11d, %r9d
	movl	%r9d, 52(%rbx,%rcx)
	movsbl	13(%r10,%rax), %r11d
	movl	%r11d, %r9d
	sarl	$31, %r9d
	andl	$2147473409, %r9d
	addl	%r11d, %r9d
	movl	%r9d, 52(%rbp,%rcx)
	leaq	14(%rax), %r9
	cmpq	%r9, %rdx
	jbe	.L535
	movsbl	14(%rdi,%rax), %r9d
	movl	%r9d, %edi
	sarl	$31, %edi
	andl	$2147473409, %edi
	addl	%r9d, %edi
	movl	%edi, 56(%rbx,%rcx)
	movsbl	14(%r10,%rax), %edi
	movl	%edi, %eax
	sarl	$31, %eax
	andl	$2147473409, %eax
	addl	%edi, %eax
	movl	%eax, 56(%rbp,%rcx)
.L535:
	movl	164(%rsp), %eax
	testl	%eax, %eax
	jne	.L538
	testb	$1, %r8b
	jne	.L536
	testl	%eax, %eax
	je	.L531
.L538:
	movq	$0, 144(%rsp)
	movl	%r8d, %eax
	andl	$1, %eax
	movb	%al, 191(%rsp)
	movl	160(%rsp), %eax
	leal	-1(%rax), %edi
	subl	164(%rsp), %eax
	movl	%edi, 100(%rsp)
	movl	%eax, 184(%rsp)
.L597:
	movl	160(%rsp), %eax
	leaq	MAX_BL_SMALL(%rip), %rsi
	movq	128(%rsp), %r11
	subl	%edi, %eax
	cmpl	%eax, 164(%rsp)
	seta	%al
	addl	$1, %edi
	orb	191(%rsp), %al
	movl	%edi, %ecx
	movb	%al, 189(%rsp)
	movl	$1, %eax
	movl	%edi, %ebp
	salq	%cl, %rax
	movl	%edi, 96(%rsp)
	movq	%rax, %r15
	movq	%rax, 168(%rsp)
	movq	144(%rsp), %rax
	shrq	%r15
	movq	(%rsi,%rax,8), %r12
	addq	$8, %rsi
	movq	%r15, 32(%rsp)
	movq	(%rsi,%rax,8), %rsi
	movq	%r15, %rax
	movq	%r12, %rbx
	movq	%rsi, 8(%rsp)
	salq	$2, %rsi
	salq	%cl, %rbx
	imulq	%rsi, %rax
	movq	%rsi, 120(%rsp)
	leaq	0(,%rbx,4), %rdx
	leaq	(%r11,%rax), %rsi
	movq	%rax, %r13
	movq	%rbx, %rax
	movq	%rdx, %rbx
	addq	%rsi, %r13
	movq	%rsi, 152(%rsp)
	movq	%r11, %rsi
	leaq	0(%r13,%rdx), %rcx
	movl	$4, %edx
	movq	%r13, 112(%rsp)
	addq	%rcx, %rbx
	movq	%rcx, 104(%rsp)
	movl	%edi, %ecx
	movq	%r13, %rdi
	salq	%cl, %rdx
	movq	%rbx, 40(%rsp)
	addq	%rdx, %rbx
	movq	%rdx, 176(%rsp)
	movq	%rdx, %r14
	movq	%rbx, 48(%rsp)
	addq	%rdx, %rbx
	leaq	0(,%rax,8), %rdx
	movq	%rbx, 16(%rsp)
	call	memmove@PLT
	testq	%r12, %r12
	je	.L546
	movq	144(%rsp), %rdi
	testl	%ebp, %ebp
	leaq	0(,%r12,4), %rdx
	movq	128(%rsp), %r11
	sete	%al
	movq	104(%rsp), %rcx
	movq	%r13, 64(%rsp)
	movq	%rbx, %rbp
	testl	%edi, %edi
	movq	%r11, 88(%rsp)
	leaq	(%rbx,%r15,8), %r13
	movq	152(%rsp), %rsi
	movq	%rdx, 136(%rsp)
	setne	%dl
	movq	%r13, %r15
	orl	%eax, %edx
	testl	%edi, %edi
	movq	%rsi, 80(%rsp)
	movb	%dl, 188(%rsp)
	sete	%dl
	addq	%rbx, %r14
	movl	$2147473409, %ebx
	orl	%eax, %edx
	leaq	4+PRIMES(%rip), %rax
	movq	%rcx, 72(%rsp)
	movb	%dl, 190(%rsp)
	movq	%rax, (%rsp)
	movq	$0, 24(%rsp)
	.p2align 4,,10
	.p2align 3
.L570:
	movl	$2, %eax
	movl	$2, %edx
	movl	%ebx, %edi
	movl	%ebx, %r8d
	subl	%ebx, %eax
	movl	%eax, %ecx
	imull	%ebx, %ecx
	subl	%ecx, %edx
	imull	%edx, %eax
	movl	$2, %edx
	movl	%eax, %ecx
	imull	%ebx, %ecx
	subl	%ecx, %edx
	imull	%edx, %eax
	movl	$2, %edx
	movl	%eax, %ecx
	imull	%ebx, %ecx
	subl	%ecx, %edx
	imull	%edx, %eax
	movl	%eax, %r9d
	imull	%ebx, %r9d
	subl	$2, %r9d
	imull	%eax, %r9d
	andl	$2147483647, %r9d
	movl	%r9d, %esi
	movl	%r9d, %r13d
	call	modp_R2
	movl	96(%rsp), %edx
	movq	48(%rsp), %rsi
	movl	%eax, 56(%rsp)
	movq	(%rsp), %rax
	movq	40(%rsp), %rdi
	movl	(%rax), %ecx
	call	modp_mkgm2
	movq	64(%rsp), %rdx
	movq	%rbp, %rax
	cmpq	$1, %r12
	jne	.L698
	.p2align 4,,10
	.p2align 3
.L547:
	movl	(%rdx), %ecx
	addq	$4, %rax
	addq	$4, %rdx
	movl	%ecx, -4(%rax)
	cmpq	%rax, %r14
	jne	.L547
.L549:
	cmpb	$0, 188(%rsp)
	je	.L699
	cmpq	$0, 32(%rsp)
	je	.L556
.L551:
	cmpq	$1, 8(%rsp)
	movl	56(%rsp), %r8d
	movl	%r13d, %esi
	movl	%ebx, %edi
	movq	88(%rsp), %rcx
	movq	%rbp, %rdx
	jne	.L700
	.p2align 4,,10
	.p2align 3
.L554:
	movl	(%rdx), %eax
	movl	4(%rdx), %r9d
	addq	$8, %rdx
	addq	$4, %rcx
	imulq	%rax, %r9
	movq	%rsi, %rax
	imulq	%r9, %rax
	andl	$2147483647, %eax
	imulq	%rdi, %rax
	addq	%r9, %rax
	shrq	$31, %rax
	subl	%ebx, %eax
	movl	%eax, %r9d
	sarl	$31, %r9d
	andl	%ebx, %r9d
	addl	%eax, %r9d
	movq	%rsi, %rax
	movl	%r9d, %r9d
	imulq	%r8, %r9
	imulq	%r9, %rax
	andl	$2147483647, %eax
	imulq	%rdi, %rax
	addq	%r9, %rax
	shrq	$31, %rax
	subl	%ebx, %eax
	movl	%eax, %r9d
	sarl	$31, %r9d
	andl	%ebx, %r9d
	addl	%r9d, %eax
	movl	%eax, -4(%rcx)
	cmpq	%r15, %rdx
	jne	.L554
.L556:
	cmpb	$0, 190(%rsp)
	jne	.L552
	movl	96(%rsp), %ecx
	movq	48(%rsp), %rdx
	movl	%r13d, %r9d
	movl	%ebx, %r8d
	movq	64(%rsp), %rdi
	movq	%r12, %rsi
	call	modp_iNTT2_ext.part.0
.L552:
	movq	72(%rsp), %rdx
	movq	%rbp, %rax
	cmpq	$1, %r12
	jne	.L701
	.p2align 4,,10
	.p2align 3
.L558:
	movl	(%rdx), %ecx
	addq	$4, %rax
	addq	$4, %rdx
	movl	%ecx, -4(%rax)
	cmpq	%r14, %rax
	jne	.L558
.L560:
	cmpb	$0, 188(%rsp)
	je	.L702
	cmpq	$0, 32(%rsp)
	je	.L567
.L562:
	cmpq	$1, 8(%rsp)
	movl	56(%rsp), %r8d
	movl	%r13d, %esi
	movl	%ebx, %edi
	movq	80(%rsp), %rcx
	movq	%rbp, %rdx
	jne	.L703
	.p2align 4,,10
	.p2align 3
.L565:
	movl	(%rdx), %eax
	movl	4(%rdx), %r9d
	addq	$8, %rdx
	addq	$4, %rcx
	imulq	%rax, %r9
	movq	%rsi, %rax
	imulq	%r9, %rax
	andl	$2147483647, %eax
	imulq	%rdi, %rax
	addq	%r9, %rax
	shrq	$31, %rax
	subl	%ebx, %eax
	movl	%eax, %r9d
	sarl	$31, %r9d
	andl	%ebx, %r9d
	addl	%eax, %r9d
	movq	%rsi, %rax
	movl	%r9d, %r9d
	imulq	%r8, %r9
	imulq	%r9, %rax
	andl	$2147483647, %eax
	imulq	%rdi, %rax
	addq	%r9, %rax
	shrq	$31, %rax
	subl	%ebx, %eax
	movl	%eax, %r9d
	sarl	$31, %r9d
	andl	%ebx, %r9d
	addl	%r9d, %eax
	movl	%eax, -4(%rcx)
	cmpq	%r15, %rdx
	jne	.L565
.L567:
	cmpb	$0, 190(%rsp)
	jne	.L563
	movl	96(%rsp), %ecx
	movq	48(%rsp), %rdx
	movl	%r13d, %r9d
	movl	%ebx, %r8d
	movq	72(%rsp), %rdi
	movq	%r12, %rsi
	call	modp_iNTT2_ext.part.0
.L563:
	cmpb	$0, 189(%rsp)
	jne	.L569
	movl	100(%rsp), %eax
	testl	%eax, %eax
	je	.L569
	movq	48(%rsp), %rdx
	movq	8(%rsp), %rsi
	movl	%r13d, %r9d
	movl	%ebx, %r8d
	movq	88(%rsp), %rdi
	movl	%eax, %ecx
	call	modp_iNTT2_ext.part.0
	movl	100(%rsp), %ecx
	movl	%r13d, %r9d
	movl	%ebx, %r8d
	movq	48(%rsp), %rdx
	movq	8(%rsp), %rsi
	movq	80(%rsp), %rdi
	call	modp_iNTT2_ext.part.0
.L569:
	addq	$1, 24(%rsp)
	movq	24(%rsp), %rax
	addq	$12, (%rsp)
	movq	(%rsp), %rdi
	addq	$4, 88(%rsp)
	addq	$4, 80(%rsp)
	addq	$4, 72(%rsp)
	addq	$4, 64(%rsp)
	cmpq	%rax, %r12
	je	.L546
	movl	-4(%rdi), %ebx
	jmp	.L570
.L702:
	movl	160(%rsp), %edx
	movl	%r13d, %r8d
	movl	%ebx, %ecx
	movq	%rbp, %rdi
	movq	40(%rsp), %rsi
	call	modp_NTT2_ext.part.0.constprop.0
	cmpq	$0, 32(%rsp)
	jne	.L562
	jmp	.L563
.L699:
	movl	160(%rsp), %edx
	movl	%r13d, %r8d
	movl	%ebx, %ecx
	movq	%rbp, %rdi
	movq	40(%rsp), %rsi
	call	modp_NTT2_ext.part.0.constprop.0
	cmpq	$0, 32(%rsp)
	jne	.L551
	jmp	.L552
.L701:
	movq	136(%rsp), %rsi
	.p2align 4,,10
	.p2align 3
.L559:
	movl	(%rdx), %ecx
	addq	$4, %rax
	addq	%rsi, %rdx
	movl	%ecx, -4(%rax)
	cmpq	%r14, %rax
	jne	.L559
	jmp	.L560
.L698:
	movq	136(%rsp), %rsi
	.p2align 4,,10
	.p2align 3
.L548:
	movl	(%rdx), %ecx
	addq	$4, %rax
	addq	%rsi, %rdx
	movl	%ecx, -4(%rax)
	cmpq	%rax, %r14
	jne	.L548
	jmp	.L549
.L700:
	movq	120(%rsp), %r9
	.p2align 4,,10
	.p2align 3
.L555:
	movl	4(%rdx), %eax
	movl	(%rdx), %r10d
	addq	$8, %rdx
	imulq	%rax, %r10
	movq	%r10, %rax
	imulq	%rsi, %rax
	andl	$2147483647, %eax
	imulq	%rdi, %rax
	addq	%r10, %rax
	shrq	$31, %rax
	subl	%ebx, %eax
	movl	%eax, %r10d
	sarl	$31, %r10d
	andl	%ebx, %r10d
	addl	%eax, %r10d
	movl	%r10d, %r10d
	imulq	%r8, %r10
	movq	%r10, %rax
	imulq	%rsi, %rax
	andl	$2147483647, %eax
	imulq	%rdi, %rax
	addq	%r10, %rax
	shrq	$31, %rax
	subl	%ebx, %eax
	movl	%eax, %r10d
	sarl	$31, %r10d
	andl	%ebx, %r10d
	addl	%r10d, %eax
	movl	%eax, (%rcx)
	addq	%r9, %rcx
	cmpq	%r15, %rdx
	jne	.L555
	jmp	.L556
.L703:
	movq	120(%rsp), %r9
	.p2align 4,,10
	.p2align 3
.L566:
	movl	4(%rdx), %eax
	movl	(%rdx), %r10d
	addq	$8, %rdx
	imulq	%rax, %r10
	movq	%r10, %rax
	imulq	%rsi, %rax
	andl	$2147483647, %eax
	imulq	%rdi, %rax
	addq	%r10, %rax
	shrq	$31, %rax
	subl	%ebx, %eax
	movl	%eax, %r10d
	sarl	$31, %r10d
	andl	%ebx, %r10d
	addl	%eax, %r10d
	movl	%r10d, %r10d
	imulq	%r8, %r10
	movq	%r10, %rax
	imulq	%rsi, %rax
	andl	$2147483647, %eax
	imulq	%rdi, %rax
	addq	%r10, %rax
	shrq	$31, %rax
	subl	%ebx, %eax
	movl	%eax, %r10d
	sarl	$31, %r10d
	andl	%ebx, %r10d
	addl	%r10d, %eax
	movl	%eax, (%rcx)
	addq	%r9, %rcx
	cmpq	%r15, %rdx
	jne	.L566
	jmp	.L567
.L546:
	movq	40(%rsp), %r14
	movq	112(%rsp), %rdi
	movq	%r12, %rdx
	movq	%r12, %rsi
	movq	168(%rsp), %rbx
	movq	%r14, %r8
	movq	%rbx, %rcx
	call	zint_rebuild_CRT.constprop.3
	movq	104(%rsp), %rdi
	movq	%r14, %r8
	movq	%rbx, %rcx
	movq	%r12, %rdx
	movq	%r12, %rsi
	call	zint_rebuild_CRT.constprop.3
	cmpq	8(%rsp), %r12
	jnb	.L571
	leaq	PRIMES(%rip), %rdi
	leaq	(%r12,%r12,2), %rax
	movq	176(%rsp), %rbp
	movq	%r12, 80(%rsp)
	leaq	(%rdi,%rax,4), %rax
	movq	32(%rsp), %rdi
	leal	-1(%r12), %r14d
	movq	%rax, 56(%rsp)
	movq	128(%rsp), %rax
	leaq	0(,%r12,4), %r13
	addq	%r13, %rax
	movq	%rax, 64(%rsp)
	movq	152(%rsp), %rax
	addq	%r13, %rax
	movq	%rax, 72(%rsp)
	movq	16(%rsp), %rax
	addq	%rax, %rbp
	leaq	(%rax,%rdi,8), %rax
	movq	%rax, 88(%rsp)
	.p2align 4,,10
	.p2align 3
.L596:
	movq	56(%rsp), %rax
	movl	$2, %edx
	movl	$-2147483648, %r15d
	movl	(%rax), %ebx
	movl	$2, %eax
	subl	%ebx, %eax
	movl	%ebx, %ecx
	movl	%ebx, %edi
	subl	%ebx, %r15d
	imull	%eax, %ecx
	subl	%ecx, %edx
	movl	%ebx, %ecx
	imull	%edx, %eax
	movl	$2, %edx
	imull	%eax, %ecx
	subl	%ecx, %edx
	movl	%ebx, %ecx
	imull	%edx, %eax
	movl	$2, %edx
	imull	%eax, %ecx
	subl	%ecx, %edx
	imull	%edx, %eax
	movl	%ebx, %edx
	imull	%eax, %edx
	subl	$2, %edx
	imull	%edx, %eax
	andl	$2147483647, %eax
	movl	%eax, %esi
	movl	%eax, (%rsp)
	movl	%eax, %r11d
	call	modp_R2
	movl	%eax, 24(%rsp)
	testl	%r14d, %r14d
	je	.L572
	movl	%r11d, %esi
	movl	%ebx, %edx
	xorl	%ecx, %ecx
	movl	$1, %edi
	movl	%eax, %eax
	.p2align 4,,10
	.p2align 3
.L574:
	btl	%ecx, %r14d
	jnc	.L573
	imulq	%rax, %r15
	movq	%rsi, %r8
	imulq	%r15, %r8
	andl	$2147483647, %r8d
	imulq	%rdx, %r8
	addq	%r15, %r8
	shrq	$31, %r8
	subl	%ebx, %r8d
	movl	%r8d, %r15d
	sarl	$31, %r15d
	andl	%ebx, %r15d
	addl	%r8d, %r15d
.L573:
	imulq	%rax, %rax
	addl	$1, %ecx
	movq	%rax, %r8
	movq	%rsi, %rax
	imulq	%r8, %rax
	andl	$2147483647, %eax
	imulq	%rdx, %rax
	addq	%r8, %rax
	shrq	$31, %rax
	subl	%ebx, %eax
	movl	%eax, %r8d
	sarl	$31, %r8d
	andl	%ebx, %r8d
	addl	%r8d, %eax
	movl	%edi, %r8d
	sall	%cl, %r8d
	cmpl	%r8d, %r14d
	jnb	.L574
.L572:
	movq	56(%rsp), %rax
	movl	(%rsp), %r9d
	movl	%ebx, %r8d
	movq	40(%rsp), %rdi
	movl	96(%rsp), %edx
	movl	4(%rax), %ecx
	movq	48(%rsp), %rsi
	call	modp_mkgm2
	movq	16(%rsp), %r8
	movl	(%rsp), %r9d
	movl	%ebx, %r10d
	movq	112(%rsp), %rdi
	movl	24(%rsp), %r11d
	.p2align 4,,10
	.p2align 3
.L577:
	xorl	%eax, %eax
	testq	%r12, %r12
	je	.L575
	leaq	-1(%r12), %rdx
	.p2align 4,,10
	.p2align 3
.L576:
	imulq	%r11, %rax
	movq	%rax, %rcx
	imulq	%r9, %rcx
	andl	$2147483647, %ecx
	imulq	%r10, %rcx
	addq	%rcx, %rax
	movl	(%rdi,%rdx,4), %ecx
	shrq	$31, %rax
	subl	%ebx, %eax
	subl	%ebx, %ecx
	movl	%eax, %esi
	subl	%ebx, %eax
	sarl	$31, %esi
	andl	%ebx, %esi
	addl	%esi, %eax
	addl	%ecx, %eax
	sarl	$31, %ecx
	andl	%ebx, %ecx
	addl	%ecx, %eax
	movl	%eax, %ecx
	sarl	$31, %ecx
	andl	%ebx, %ecx
	addl	%ecx, %eax
	subq	$1, %rdx
	jnb	.L576
	movl	-4(%rdi,%r13), %edx
	shrl	$30, %edx
	negl	%edx
	andl	%r15d, %edx
	subl	%edx, %eax
	cltd
	andl	%ebx, %edx
	addl	%edx, %eax
.L575:
	movl	%eax, (%r8)
	addq	$4, %r8
	addq	%r13, %rdi
	cmpq	%r8, %rbp
	jne	.L577
	movl	96(%rsp), %eax
	testl	%eax, %eax
	je	.L578
	movl	(%rsp), %r8d
	movq	40(%rsp), %rsi
	movl	%ebx, %ecx
	movl	%eax, %edx
	movq	16(%rsp), %rdi
	call	modp_NTT2_ext.part.0.constprop.0
.L578:
	cmpq	$0, 32(%rsp)
	je	.L583
	cmpq	$1, 8(%rsp)
	movl	(%rsp), %esi
	movl	%ebx, %edi
	movl	24(%rsp), %r8d
	movq	16(%rsp), %rdx
	movq	64(%rsp), %rcx
	movq	88(%rsp), %r9
	jne	.L704
	.p2align 4,,10
	.p2align 3
.L581:
	movl	(%rdx), %eax
	movl	4(%rdx), %r10d
	addq	$8, %rdx
	addq	$4, %rcx
	imulq	%rax, %r10
	movq	%rsi, %rax
	imulq	%r10, %rax
	andl	$2147483647, %eax
	imulq	%rdi, %rax
	addq	%r10, %rax
	shrq	$31, %rax
	subl	%ebx, %eax
	movl	%eax, %r10d
	sarl	$31, %r10d
	andl	%ebx, %r10d
	addl	%eax, %r10d
	movq	%rsi, %rax
	movl	%r10d, %r10d
	imulq	%r8, %r10
	imulq	%r10, %rax
	andl	$2147483647, %eax
	imulq	%rdi, %rax
	addq	%r10, %rax
	shrq	$31, %rax
	subl	%ebx, %eax
	movl	%eax, %r10d
	sarl	$31, %r10d
	andl	%ebx, %r10d
	addl	%r10d, %eax
	movl	%eax, -4(%rcx)
	cmpq	%rdx, %r9
	jne	.L581
.L583:
	movq	16(%rsp), %r8
	movq	104(%rsp), %rdi
	movl	%ebx, %r10d
	movl	24(%rsp), %r11d
	movl	(%rsp), %r9d
	.p2align 4,,10
	.p2align 3
.L580:
	xorl	%eax, %eax
	testq	%r12, %r12
	je	.L585
	leaq	-1(%r12), %rdx
	.p2align 4,,10
	.p2align 3
.L586:
	imulq	%r11, %rax
	movq	%rax, %rcx
	imulq	%r9, %rcx
	andl	$2147483647, %ecx
	imulq	%r10, %rcx
	addq	%rcx, %rax
	movl	(%rdi,%rdx,4), %ecx
	shrq	$31, %rax
	subl	%ebx, %eax
	subl	%ebx, %ecx
	movl	%eax, %esi
	subl	%ebx, %eax
	sarl	$31, %esi
	andl	%ebx, %esi
	addl	%esi, %eax
	addl	%ecx, %eax
	sarl	$31, %ecx
	andl	%ebx, %ecx
	addl	%ecx, %eax
	movl	%eax, %ecx
	sarl	$31, %ecx
	andl	%ebx, %ecx
	addl	%ecx, %eax
	subq	$1, %rdx
	jnb	.L586
	movl	-4(%rdi,%r13), %edx
	shrl	$30, %edx
	negl	%edx
	andl	%r15d, %edx
	subl	%edx, %eax
	cltd
	andl	%ebx, %edx
	addl	%edx, %eax
.L585:
	movl	%eax, (%r8)
	addq	$4, %r8
	addq	%r13, %rdi
	cmpq	%r8, %rbp
	jne	.L580
	movl	96(%rsp), %eax
	testl	%eax, %eax
	je	.L587
	movl	(%rsp), %r8d
	movq	40(%rsp), %rsi
	movl	%ebx, %ecx
	movl	%eax, %edx
	movq	16(%rsp), %rdi
	call	modp_NTT2_ext.part.0.constprop.0
.L587:
	cmpq	$0, 32(%rsp)
	je	.L593
	cmpq	$1, 8(%rsp)
	movl	(%rsp), %esi
	movl	%ebx, %edi
	movl	24(%rsp), %r8d
	movq	16(%rsp), %rdx
	movq	72(%rsp), %rcx
	movq	88(%rsp), %r9
	jne	.L705
	.p2align 4,,10
	.p2align 3
.L591:
	movl	(%rdx), %eax
	movl	4(%rdx), %r10d
	addq	$8, %rdx
	addq	$4, %rcx
	imulq	%rax, %r10
	movq	%rsi, %rax
	imulq	%r10, %rax
	andl	$2147483647, %eax
	imulq	%rdi, %rax
	addq	%r10, %rax
	shrq	$31, %rax
	subl	%ebx, %eax
	movl	%eax, %r10d
	sarl	$31, %r10d
	andl	%ebx, %r10d
	addl	%eax, %r10d
	movq	%rsi, %rax
	movl	%r10d, %r10d
	imulq	%r8, %r10
	imulq	%r10, %rax
	andl	$2147483647, %eax
	imulq	%rdi, %rax
	addq	%r10, %rax
	shrq	$31, %rax
	subl	%ebx, %eax
	movl	%eax, %r10d
	sarl	$31, %r10d
	andl	%ebx, %r10d
	addl	%r10d, %eax
	movl	%eax, -4(%rcx)
	cmpq	%rdx, %r9
	jne	.L591
.L593:
	addq	$1, 80(%rsp)
	cmpb	$0, 189(%rsp)
	jne	.L589
	movl	100(%rsp), %r15d
	testl	%r15d, %r15d
	je	.L595
	movl	(%rsp), %r9d
	movq	48(%rsp), %rdx
	movl	%ebx, %r8d
	movl	%r15d, %ecx
	movq	8(%rsp), %rsi
	movq	64(%rsp), %rdi
	call	modp_iNTT2_ext.part.0
	movl	(%rsp), %r9d
	movl	%ebx, %r8d
	movl	%r15d, %ecx
	movq	48(%rsp), %rdx
	movq	8(%rsp), %rsi
	movq	72(%rsp), %rdi
	call	modp_iNTT2_ext.part.0
.L595:
	movq	80(%rsp), %rdi
	cmpq	%rdi, 8(%rsp)
	jbe	.L531
.L598:
	addq	$12, 56(%rsp)
	addq	$4, 64(%rsp)
	addq	$4, 72(%rsp)
	jmp	.L596
	.p2align 4,,10
	.p2align 3
.L589:
	movq	80(%rsp), %rdi
	cmpq	%rdi, 8(%rsp)
	ja	.L598
.L571:
	addq	$1, 144(%rsp)
	movl	100(%rsp), %edi
	leal	-1(%rdi), %eax
	cmpl	%edi, 184(%rsp)
	je	.L531
	movl	%eax, 100(%rsp)
	movl	%eax, %edi
	jmp	.L597
.L704:
	movq	120(%rsp), %r10
	.p2align 4,,10
	.p2align 3
.L582:
	movl	4(%rdx), %eax
	movl	(%rdx), %r11d
	addq	$8, %rdx
	imulq	%rax, %r11
	movq	%r11, %rax
	imulq	%rsi, %rax
	andl	$2147483647, %eax
	imulq	%rdi, %rax
	addq	%r11, %rax
	shrq	$31, %rax
	subl	%ebx, %eax
	movl	%eax, %r11d
	sarl	$31, %r11d
	andl	%ebx, %r11d
	addl	%eax, %r11d
	movl	%r11d, %r11d
	imulq	%r8, %r11
	movq	%r11, %rax
	imulq	%rsi, %rax
	andl	$2147483647, %eax
	imulq	%rdi, %rax
	addq	%r11, %rax
	shrq	$31, %rax
	subl	%ebx, %eax
	movl	%eax, %r11d
	sarl	$31, %r11d
	andl	%ebx, %r11d
	addl	%r11d, %eax
	movl	%eax, (%rcx)
	addq	%r10, %rcx
	cmpq	%rdx, %r9
	jne	.L582
	jmp	.L583
.L705:
	movq	120(%rsp), %r10
	.p2align 4,,10
	.p2align 3
.L592:
	movl	4(%rdx), %eax
	movl	(%rdx), %r11d
	addq	$8, %rdx
	imulq	%rax, %r11
	movq	%r11, %rax
	imulq	%rsi, %rax
	andl	$2147483647, %eax
	imulq	%rdi, %rax
	addq	%r11, %rax
	shrq	$31, %rax
	subl	%ebx, %eax
	movl	%eax, %r11d
	sarl	$31, %r11d
	andl	%ebx, %r11d
	addl	%eax, %r11d
	movl	%r11d, %r11d
	imulq	%r8, %r11
	movq	%r11, %rax
	imulq	%rsi, %rax
	andl	$2147483647, %eax
	imulq	%rdi, %rax
	addq	%r11, %rax
	shrq	$31, %rax
	subl	%ebx, %eax
	movl	%eax, %r11d
	sarl	$31, %r11d
	andl	%ebx, %r11d
	addl	%r11d, %eax
	movl	%eax, (%rcx)
	addq	%r10, %rcx
	cmpq	%rdx, %r9
	jne	.L592
	jmp	.L593
.L531:
	addq	$200, %rsp
	.cfi_remember_state
	.cfi_def_cfa_offset 56
	popq	%rbx
	.cfi_def_cfa_offset 48
	popq	%rbp
	.cfi_def_cfa_offset 40
	popq	%r12
	.cfi_def_cfa_offset 32
	popq	%r13
	.cfi_def_cfa_offset 24
	popq	%r14
	.cfi_def_cfa_offset 16
	popq	%r15
	.cfi_def_cfa_offset 8
	ret
.L536:
	.cfi_restore_state
	movl	160(%rsp), %edi
	cmpl	$9, %edi
	ja	.L600
	je	.L601
	cmpl	$8, %edi
	je	.L602
	cmpl	$7, %edi
	je	.L603
	cmpl	$6, %edi
	je	.L604
	cmpl	$5, %edi
	je	.L605
	cmpl	$4, %edi
	je	.L606
	cmpl	$3, %edi
	je	.L607
	leal	8(%rdi), %eax
	cmpl	$2, %edi
	je	.L608
	cmpl	$8, %eax
	movl	$2147463170, %edi
	movl	$1211775442, %eax
	cmovne	%rax, %rdi
.L540:
	movl	$30, %ecx
	movl	$10239, %eax
	movl	$2147473407, %r8d
.L542:
	imulq	%rax, %rax
	imulq	$2042615807, %rax, %r9
	andl	$2147483647, %r9d
	imulq	$2147473409, %r9, %r9
	addq	%r9, %rax
	shrq	$31, %rax
	subl	$2147473409, %eax
	movl	%eax, %r9d
	sarl	$31, %r9d
	andl	$2147473409, %r9d
	leal	(%rax,%r9), %r10d
	movq	%r10, %rax
	imulq	%rdi, %r10
	imulq	$2042615807, %r10, %r9
	andl	$2147483647, %r9d
	imulq	$2147473409, %r9, %r9
	addq	%r10, %r9
	movl	%r8d, %r10d
	shrq	$31, %r9
	shrl	%cl, %r10d
	subl	$2147473409, %r9d
	andl	$1, %r10d
	movl	%r9d, %r11d
	negl	%r10d
	sarl	$31, %r11d
	andl	$2147473409, %r11d
	addl	%r11d, %r9d
	xorl	%eax, %r9d
	andl	%r10d, %r9d
	xorl	%r9d, %eax
	subl	$1, %ecx
	jnb	.L542
	imulq	$2042615807, %rax, %rcx
	leaq	(%r12,%rsi), %r11
	xorl	%ebx, %ebx
	xorl	%r9d, %r9d
	leaq	REV10(%rip), %rsi
	andl	$2147483647, %ecx
	imulq	$2147473409, %rcx, %rcx
	addq	%rcx, %rax
	shrq	$31, %rax
	subl	$2147473409, %eax
	movl	%eax, %ecx
	sarl	$31, %ecx
	andl	$2147473409, %ecx
	addl	%eax, %ecx
	movl	%ecx, %ecx
	imulq	$10239, %rcx, %rax
	imulq	$104837121, %rcx, %rcx
	andl	$2147483647, %eax
	imulq	$2147473409, %rax, %rax
	addq	%rcx, %rax
	movl	$10, %ecx
	subl	160(%rsp), %ecx
	shrq	$31, %rax
	subl	$2147473409, %eax
	movl	%eax, %r8d
	sarl	$31, %r8d
	andl	$2147473409, %r8d
	leal	(%rax,%r8), %r10d
	movl	$10239, %eax
	movl	$10239, %r8d
	jmp	.L544
.L706:
	movq	%r9, %rbx
	salq	%cl, %rbx
	movzwl	(%rsi,%rbx,2), %ebx
.L544:
	movl	%r8d, (%r12,%rbx,4)
	imulq	%rdi, %r8
	addq	$1, %r9
	movl	%eax, (%r11,%rbx,4)
	imulq	%r10, %rax
	imulq	$2042615807, %r8, %rbx
	andl	$2147483647, %ebx
	imulq	$2147473409, %rbx, %rbx
	addq	%r8, %rbx
	shrq	$31, %rbx
	subl	$2147473409, %ebx
	movl	%ebx, %r8d
	sarl	$31, %r8d
	andl	$2147473409, %r8d
	addl	%ebx, %r8d
	movq	%rax, %rbx
	imulq	$2042615807, %rax, %rax
	andl	$2147483647, %eax
	imulq	$2147473409, %rax, %rax
	addq	%rbx, %rax
	shrq	$31, %rax
	subl	$2147473409, %eax
	movl	%eax, %ebx
	sarl	$31, %ebx
	andl	$2147473409, %ebx
	addl	%ebx, %eax
	cmpq	%r9, %rdx
	jne	.L706
	movl	160(%rsp), %ebx
	testl	%ebx, %ebx
	je	.L531
	movl	%ebx, %edx
	movq	%r12, %rsi
	movl	$2042615807, %r8d
	movl	$2147473409, %ecx
	movq	128(%rsp), %rdi
	call	modp_NTT2_ext.part.0.constprop.0
	movl	%ebx, %edx
	movq	%r12, %rsi
	movq	%rbp, %rdi
	addq	$200, %rsp
	.cfi_remember_state
	.cfi_def_cfa_offset 56
	movl	$2042615807, %r8d
	movl	$2147473409, %ecx
	popq	%rbx
	.cfi_def_cfa_offset 48
	popq	%rbp
	.cfi_def_cfa_offset 40
	popq	%r12
	.cfi_def_cfa_offset 32
	popq	%r13
	.cfi_def_cfa_offset 24
	popq	%r14
	.cfi_def_cfa_offset 16
	popq	%r15
	.cfi_def_cfa_offset 8
	jmp	modp_NTT2_ext.part.0.constprop.0
.L599:
	.cfi_restore_state
	xorl	%eax, %eax
.L532:
	movsbl	(%rdi,%rax), %r9d
	movq	128(%rsp), %rbx
	movl	%r9d, %ecx
	sarl	$31, %ecx
	andl	$2147473409, %ecx
	addl	%r9d, %ecx
	movl	%ecx, (%rbx,%rax,4)
	movsbl	(%r10,%rax), %r9d
	movl	%r9d, %ecx
	sarl	$31, %ecx
	andl	$2147473409, %ecx
	addl	%r9d, %ecx
	movl	%ecx, 0(%rbp,%rax,4)
	addq	$1, %rax
	cmpq	%rax, %rdx
	jne	.L532
	jmp	.L535
.L601:
	movl	$1685737800, %edi
	jmp	.L540
.L600:
	movl	$1968792473, %edi
	jmp	.L540
.L608:
	movl	$844192849, %edi
	jmp	.L540
.L607:
	movl	$1642906936, %edi
	jmp	.L540
.L606:
	movl	$2109245776, %edi
	jmp	.L540
.L605:
	movl	$1525826314, %edi
	jmp	.L540
.L604:
	movl	$1751781058, %edi
	jmp	.L540
.L603:
	movl	$36002698, %edi
	jmp	.L540
.L602:
	movl	$583466347, %edi
	jmp	.L540
	.cfi_endproc
.LFE5561:
	.size	make_fg, .-make_fg
	.p2align 4
	.type	solve_NTRU_intermediate, @function
solve_NTRU_intermediate:
.LFB5563:
	.cfi_startproc
	pushq	%r15
	.cfi_def_cfa_offset 16
	.cfi_offset 15, -16
	movl	%edi, %r10d
	movl	$1, %eax
	movq	%r8, %rdi
	pushq	%r14
	.cfi_def_cfa_offset 24
	.cfi_offset 14, -24
	movl	%r10d, %r15d
	movl	%ecx, %r14d
	movl	$1, %r9d
	pushq	%r13
	.cfi_def_cfa_offset 32
	.cfi_offset 13, -32
	subl	%r14d, %r15d
	pushq	%r12
	.cfi_def_cfa_offset 40
	.cfi_offset 12, -40
	pushq	%rbp
	.cfi_def_cfa_offset 48
	.cfi_offset 6, -48
	pushq	%rbx
	.cfi_def_cfa_offset 56
	.cfi_offset 3, -56
	subq	$232, %rsp
	.cfi_def_cfa_offset 288
	movl	%ecx, 220(%rsp)
	movl	%r15d, %ecx
	salq	%cl, %rax
	movq	%r8, 168(%rsp)
	movq	%r14, %r8
	movq	%rax, 160(%rsp)
	movq	%rax, %rbx
	leaq	MAX_BL_SMALL(%rip), %rax
	movq	(%rax,%r14,8), %rcx
	shrq	%rbx
	movq	%r14, 208(%rsp)
	movq	%rbx, 8(%rsp)
	movq	%rcx, 64(%rsp)
	leal	1(%r14), %ecx
	movq	(%rax,%rcx,8), %rcx
	leaq	MAX_BL_LARGE(%rip), %rax
	movl	%r15d, 136(%rsp)
	movq	(%rax,%r14,8), %rbp
	movq	%rdi, %r14
	imulq	%rcx, %rbx
	movq	%rcx, 32(%rsp)
	movl	%r10d, %ecx
	leaq	0(,%rbx,8), %r12
	leaq	(%rdi,%r12), %r13
	movq	%r13, %rdi
	call	make_fg
	movl	%r15d, %ecx
	movq	%rbp, %rax
	movq	64(%rsp), %rdx
	salq	%cl, %rax
	movq	%rbp, 104(%rsp)
	salq	$2, %rax
	salq	%cl, %rdx
	leaq	(%r14,%rax), %rsi
	movq	%rax, %rdi
	movq	%rdx, %rbp
	salq	$3, %rdx
	addq	%rsi, %rdi
	movq	%rsi, 176(%rsp)
	salq	$2, %rbp
	movq	%r13, %rsi
	movq	%rdi, %r13
	movq	%rdi, 144(%rsp)
	call	memmove@PLT
	leaq	0(%r13,%rbp), %rdx
	movq	%rbp, %rdi
	movq	%r14, %rsi
	addq	%rdx, %rdi
	movq	%rdx, 152(%rsp)
	movq	%r12, %rdx
	movq	%rdi, %r13
	movq	%rdi, 96(%rsp)
	call	memmove@PLT
	leaq	0(%r13,%rbx,4), %rbx
	movl	%r15d, %ecx
	movq	104(%rsp), %rax
	movq	%rbx, 72(%rsp)
	movl	$4, %ebx
	salq	%cl, %rbx
	movq	%rbx, 200(%rsp)
	testq	%rax, %rax
	je	.L708
	movq	32(%rsp), %rcx
	movq	%r14, 112(%rsp)
	leaq	12+PRIMES(%rip), %rdi
	movl	$2147473409, %r8d
	movq	%rdi, 56(%rsp)
	movl	%ecx, %ebx
	movq	%r14, 40(%rsp)
	leaq	0(,%rcx,4), %r13
	subl	$1, %ebx
	movl	%ebx, 80(%rsp)
	leaq	0(,%rax,4), %rbx
	movq	176(%rsp), %rax
	movq	%rbx, 16(%rsp)
	addq	%r14, %rbx
	movq	%rax, 120(%rsp)
	movq	%rbx, 88(%rsp)
	movq	%rax, 48(%rsp)
	.p2align 4,,10
	.p2align 3
.L719:
	movl	$2, %eax
	movl	$2, %edx
	movl	%r8d, %edi
	movl	$-2147483648, %r11d
	subl	%r8d, %eax
	subl	%r8d, %r11d
	movl	%eax, %ecx
	imull	%r8d, %ecx
	subl	%ecx, %edx
	imull	%eax, %edx
	movl	$2, %eax
	movl	%edx, %ecx
	imull	%r8d, %ecx
	subl	%ecx, %eax
	imull	%edx, %eax
	movl	$2, %edx
	movl	%eax, %ecx
	imull	%r8d, %ecx
	subl	%ecx, %edx
	imull	%eax, %edx
	movl	%edx, %eax
	imull	%r8d, %eax
	subl	$2, %eax
	imull	%edx, %eax
	andl	$2147483647, %eax
	movl	%eax, %r10d
	movl	%r10d, %esi
	call	modp_R2
	movl	80(%rsp), %ebx
	movl	%r11d, 24(%rsp)
	movl	%eax, %r9d
	testl	%ebx, %ebx
	je	.L709
	movl	%r10d, %esi
	movl	%r8d, %edx
	xorl	%ecx, %ecx
	movl	%r9d, %eax
	.p2align 4,,10
	.p2align 3
.L711:
	btl	%ecx, %ebx
	jnc	.L710
	imulq	%rax, %r11
	movq	%rsi, %rdi
	imulq	%r11, %rdi
	andl	$2147483647, %edi
	imulq	%rdx, %rdi
	addq	%r11, %rdi
	shrq	$31, %rdi
	subl	%r8d, %edi
	movl	%edi, %r11d
	sarl	$31, %r11d
	andl	%r8d, %r11d
	addl	%edi, %r11d
.L710:
	imulq	%rax, %rax
	addl	$1, %ecx
	movq	%rax, %rdi
	movq	%rsi, %rax
	imulq	%rdi, %rax
	andl	$2147483647, %eax
	imulq	%rdx, %rax
	addq	%rdi, %rax
	shrq	$31, %rax
	subl	%r8d, %eax
	movl	%eax, %edi
	sarl	$31, %edi
	andl	%r8d, %edi
	addl	%edi, %eax
	movl	$1, %edi
	sall	%cl, %edi
	cmpl	%edi, %ebx
	jnb	.L711
	movl	%r11d, 24(%rsp)
.L709:
	xorl	%r12d, %r12d
	movq	40(%rsp), %r15
	movq	48(%rsp), %r14
	movl	%r8d, %r11d
	cmpq	$0, 8(%rsp)
	movq	72(%rsp), %rbp
	movq	96(%rsp), %rbx
	je	.L718
	.p2align 4,,10
	.p2align 3
.L712:
	movq	32(%rsp), %rax
	testq	%rax, %rax
	je	.L715
	leaq	-1(%rax), %rsi
	xorl	%edx, %edx
	movq	%rsi, %rdi
	.p2align 4,,10
	.p2align 3
.L716:
	imulq	%r9, %rdx
	movl	(%rbx,%rdi,4), %ecx
	subl	%r8d, %ecx
	movq	%rdx, %rax
	imulq	%r10, %rax
	andl	$2147483647, %eax
	imulq	%r11, %rax
	addq	%rdx, %rax
	shrq	$31, %rax
	subl	%r8d, %eax
	cltd
	subl	%r8d, %eax
	andl	%r8d, %edx
	addl	%eax, %edx
	addl	%ecx, %edx
	sarl	$31, %ecx
	andl	%r8d, %ecx
	addl	%ecx, %edx
	movl	%edx, %eax
	sarl	$31, %eax
	andl	%r8d, %eax
	addl	%eax, %edx
	subq	$1, %rdi
	jnb	.L716
	movl	-4(%rbx,%r13), %eax
	shrl	$30, %eax
	negl	%eax
	andl	24(%rsp), %eax
	subl	%eax, %edx
	movl	%edx, %eax
	sarl	$31, %eax
	andl	%r8d, %eax
	addl	%eax, %edx
	movl	%edx, (%r15)
	xorl	%edx, %edx
	.p2align 4,,10
	.p2align 3
.L717:
	movl	%edx, %eax
	movl	0(%rbp,%rsi,4), %edx
	imulq	%r9, %rax
	subl	%r8d, %edx
	movq	%rax, %rcx
	imulq	%r10, %rcx
	andl	$2147483647, %ecx
	imulq	%r11, %rcx
	addq	%rax, %rcx
	shrq	$31, %rcx
	subl	%r8d, %ecx
	movl	%ecx, %eax
	subl	%r8d, %ecx
	sarl	$31, %eax
	andl	%r8d, %eax
	addl	%ecx, %eax
	addl	%edx, %eax
	sarl	$31, %edx
	andl	%r8d, %edx
	addl	%edx, %eax
	cltd
	andl	%r8d, %edx
	addl	%eax, %edx
	subq	$1, %rsi
	jnb	.L717
	movl	-4(%rbp,%r13), %eax
	shrl	$30, %eax
	negl	%eax
	andl	24(%rsp), %eax
	subl	%eax, %edx
	movl	%edx, %eax
	sarl	$31, %eax
	andl	%r8d, %eax
	addl	%eax, %edx
.L772:
	movq	16(%rsp), %rax
	movl	%edx, (%r14)
	addq	$1, %r12
	addq	%r13, %rbx
	addq	%r13, %rbp
	addq	%rax, %r15
	addq	%rax, %r14
	cmpq	%r12, 8(%rsp)
	jne	.L712
.L718:
	addq	$4, 40(%rsp)
	movq	40(%rsp), %rax
	addq	$4, 48(%rsp)
	cmpq	88(%rsp), %rax
	je	.L860
	movq	56(%rsp), %rax
	movl	(%rax), %r8d
	addq	$12, %rax
	movq	%rax, 56(%rsp)
	jmp	.L719
	.p2align 4,,10
	.p2align 3
.L715:
	movl	$0, (%r15)
	xorl	%edx, %edx
	jmp	.L772
.L708:
	movq	104(%rsp), %r14
	movq	96(%rsp), %rbx
	movq	160(%rsp), %rbp
	movq	168(%rsp), %r15
	movq	%rbx, %r8
	movq	%r14, %rdx
	movq	%r14, %rsi
	movq	%rbp, %rcx
	movq	%r15, %rdi
	call	zint_rebuild_CRT.constprop.3
	movq	%r14, %rdx
	movq	%rbx, %r8
	movq	%rbp, %rcx
	movq	176(%rsp), %rdi
	movq	%r14, %rsi
	call	zint_rebuild_CRT.constprop.3
	movq	%rbx, %rax
	subq	%r15, %rax
	movq	%rax, %rdx
	andl	$7, %edx
	je	.L744
	addq	$8, %rax
	subq	%rdx, %rax
	addq	%r15, %rax
	movq	%rax, 96(%rsp)
.L744:
	movq	96(%rsp), %rsi
	movl	$8, %eax
	movq	8(%rsp), %rbx
	movzbl	136(%rsp), %ecx
	salq	%cl, %rax
	addq	%rax, %rsi
	movq	%rsi, 16(%rsp)
	addq	%rax, %rsi
	leaq	(%rsi,%rbx,8), %r15
	movq	%rsi, 24(%rsp)
	movq	168(%rsp), %rsi
	movq	%r15, %rdx
	movq	%r15, %rbp
	subq	%rsi, %rdx
	movq	%rdx, %rcx
	andl	$3, %ecx
	je	.L745
	addq	$4, %rdx
	subq	%rcx, %rdx
	leaq	(%rsi,%rdx), %rbp
.L745:
	movq	200(%rsp), %rbx
	movq	168(%rsp), %rsi
	addq	%rbp, %rbx
	movq	%rbx, %rdx
	movq	%rbx, 72(%rsp)
	subq	%rsi, %rdx
	movq	%rdx, %rcx
	andl	$7, %ecx
	je	.L746
	addq	$8, %rdx
	subq	%rcx, %rdx
	leaq	(%rsi,%rdx), %rbx
.L746:
	addq	%r15, %rax
	movl	$10, %r12d
	movl	136(%rsp), %r14d
	movq	144(%rsp), %rsi
	cmpq	%rax, %rbx
	movq	96(%rsp), %rdi
	cmovb	%rax, %rbx
	movq	64(%rsp), %rax
	movl	%r14d, %r8d
	cmpq	%r12, %rax
	movq	%rax, %r13
	movq	%rax, %rcx
	cmovbe	%rax, %r12
	subq	%r12, %r13
	movq	%r12, %rdx
	salq	$2, %r13
	addq	%r13, %rsi
	call	poly_big_to_fp
	movq	16(%rsp), %rdi
	movl	%r14d, %r8d
	movq	%r12, %rdx
	movq	152(%rsp), %rsi
	addq	%r13, %rsi
	movq	64(%rsp), %r13
	movq	%r13, %rcx
	call	poly_big_to_fp
	movl	%r13d, %eax
	movq	208(%rsp), %rsi
	movq	96(%rsp), %r13
	subl	%r12d, %eax
	movl	%eax, %edx
	movq	%r13, %rdi
	sall	$5, %edx
	subl	%eax, %edx
	leaq	BITLENGTH(%rip), %rax
	movl	%edx, 56(%rsp)
	movl	(%rax,%rsi,8), %edx
	movl	4(%rax,%rsi,8), %eax
	movl	%r14d, %esi
	leal	0(,%rax,4), %ecx
	subl	%ecx, %eax
	addl	%eax, %eax
	leal	(%rdx,%rax), %r12d
	subl	%eax, %edx
	movl	%edx, 88(%rsp)
	call	falcon_inner_FFT@PLT
	movq	16(%rsp), %rdi
	movl	%r14d, %esi
	call	falcon_inner_FFT@PLT
	movq	16(%rsp), %rdx
	movl	%r14d, %ecx
	movq	%r13, %rsi
	movq	24(%rsp), %rdi
	call	falcon_inner_poly_invnorm2_fft@PLT
	movl	%r14d, %esi
	movq	%r13, %rdi
	movl	%r14d, %r13d
	call	falcon_inner_poly_adj_fft@PLT
	movq	16(%rsp), %rdi
	movl	%r14d, %esi
	movabsq	$-4503599627370496, %r14
	call	falcon_inner_poly_adj_fft@PLT
	movq	104(%rsp), %r10
	movl	%r10d, %eax
	sall	$5, %eax
	subl	%r10d, %eax
	movl	%eax, %r11d
	movl	%eax, 80(%rsp)
	subl	%r12d, %r11d
	movl	%r13d, %r12d
	movq	160(%rsp), %r13
.L760:
	movl	$10, %eax
	movq	%r10, %r9
	movq	104(%rsp), %rcx
	movl	%r12d, %r8d
	cmpq	%rax, %r10
	movq	168(%rsp), %rsi
	movq	%r15, %rdi
	movl	%r11d, 48(%rsp)
	cmovbe	%r10, %rax
	movq	%r10, 40(%rsp)
	subq	%rax, %r9
	movq	%rax, %rdx
	movq	%rax, 8(%rsp)
	salq	$2, %r9
	addq	%r9, %rsi
	movq	%r9, 32(%rsp)
	call	poly_big_to_fp
	movq	32(%rsp), %r9
	movl	%r12d, %r8d
	movq	%rbx, %rdi
	movq	176(%rsp), %rax
	movq	104(%rsp), %rcx
	movq	8(%rsp), %rdx
	leaq	(%rax,%r9), %rsi
	call	poly_big_to_fp
	movl	%r12d, %esi
	movq	%r15, %rdi
	call	falcon_inner_FFT@PLT
	movl	%r12d, %esi
	movq	%rbx, %rdi
	call	falcon_inner_FFT@PLT
	movq	96(%rsp), %rsi
	movl	%r12d, %edx
	movq	%r15, %rdi
	call	falcon_inner_poly_mul_fft@PLT
	movq	16(%rsp), %rsi
	movl	%r12d, %edx
	movq	%rbx, %rdi
	call	falcon_inner_poly_mul_fft@PLT
	movl	%r12d, %edx
	movq	%r15, %rsi
	movq	%rbx, %rdi
	call	falcon_inner_poly_add@PLT
	movq	24(%rsp), %rsi
	movl	%r12d, %edx
	movq	%rbx, %rdi
	call	falcon_inner_poly_mul_autoadj_fft@PLT
	movl	%r12d, %esi
	movq	%rbx, %rdi
	call	falcon_inner_iFFT@PLT
	movq	40(%rsp), %r10
	movq	8(%rsp), %rax
	movq	.LC17(%rip), %rsi
	movl	48(%rsp), %r11d
	movl	%r10d, %ecx
	movq	%rsi, %xmm4
	movq	.LC21(%rip), %rsi
	subl	%eax, %ecx
	movl	%r11d, %eax
	movl	%ecx, %edx
	movq	%rsi, %xmm5
	movq	.LC22(%rip), %rsi
	sall	$5, %edx
	subl	%ecx, %edx
	movq	%rsi, %xmm6
	movq	.LC16(%rip), %rsi
	subl	%edx, %eax
	addl	56(%rsp), %eax
	movq	%rsi, %xmm2
	js	.L861
	je	.L786
	movsd	.LC20(%rip), %xmm0
.L748:
	movapd	%xmm4, %xmm1
	.p2align 4,,10
	.p2align 3
.L751:
	testb	$1, %al
	je	.L750
	mulsd	%xmm0, %xmm1
.L750:
	mulsd	%xmm0, %xmm0
	sarl	%eax
	jne	.L751
.L749:
	movabsq	$4503599627370496, %r9
	xorl	%esi, %esi
	.p2align 4,,10
	.p2align 3
.L755:
	movsd	(%rbx,%rsi,8), %xmm0
	mulsd	%xmm1, %xmm0
	comisd	%xmm5, %xmm0
	jbe	.L853
	comisd	%xmm0, %xmm6
	jbe	.L853
	movapd	%xmm0, %xmm3
	cvttsd2siq	%xmm0, %rcx
	addsd	%xmm2, %xmm3
	cvttsd2siq	%xmm3, %rdx
	movapd	%xmm0, %xmm3
	subsd	%xmm4, %xmm0
	movq	%rcx, %rax
	subsd	%xmm2, %xmm3
	shrq	$52, %rax
	addl	$1, %eax
	cvttsd2siq	%xmm0, %r8
	andl	$4095, %eax
	cvttsd2siq	%xmm3, %rdi
	addq	%r14, %rdx
	subl	$2, %eax
	shrl	$31, %eax
	sarq	$63, %r8
	addq	%r9, %rdi
	xorq	%rdx, %rdi
	andq	%r8, %rdi
	xorq	%rdi, %rdx
	movq	%rax, %rdi
	subq	$1, %rax
	negq	%rdi
	andq	%rcx, %rax
	andq	%rdi, %rdx
	orq	%rax, %rdx
	movl	%edx, 0(%rbp,%rsi,4)
	addq	$1, %rsi
	cmpq	%rsi, %r13
	jne	.L755
	movslq	%r11d, %rax
	movl	%r11d, %edx
	movl	%r11d, %esi
	movl	%r11d, 48(%rsp)
	imulq	$-2078209981, %rax, %rax
	sarl	$31, %edx
	shrq	$32, %rax
	addl	%r11d, %eax
	sarl	$4, %eax
	subl	%edx, %eax
	movl	%eax, %edx
	sall	$5, %edx
	subl	%eax, %edx
	subl	%edx, %esi
	cmpl	$4, 220(%rsp)
	movl	%esi, 8(%rsp)
	jbe	.L862
	pushq	%r12
	.cfi_def_cfa_offset 296
	movl	16(%rsp), %esi
	pushq	%rsi
	.cfi_def_cfa_offset 304
	movq	%r10, %rsi
	pushq	%rax
	.cfi_def_cfa_offset 312
	movl	%eax, 64(%rsp)
	pushq	%rbp
	.cfi_def_cfa_offset 320
	movq	96(%rsp), %r9
	movq	176(%rsp), %rcx
	movq	136(%rsp), %rdx
	movq	200(%rsp), %rdi
	movq	%r9, %r8
	movq	%r10, 64(%rsp)
	call	poly_sub_scaled
	addq	$32, %rsp
	.cfi_def_cfa_offset 288
	pushq	%r12
	.cfi_def_cfa_offset 296
	movl	16(%rsp), %esi
	pushq	%rsi
	.cfi_def_cfa_offset 304
	movl	56(%rsp), %eax
	pushq	%rax
	.cfi_def_cfa_offset 312
	pushq	%rbp
	.cfi_def_cfa_offset 320
	movq	64(%rsp), %r10
	movq	96(%rsp), %r9
	movq	184(%rsp), %rcx
	movq	136(%rsp), %rdx
	movq	208(%rsp), %rdi
	movq	%r10, %rsi
	movq	%r9, %r8
	movq	%r10, 40(%rsp)
	call	poly_sub_scaled
	movl	80(%rsp), %r11d
	movq	40(%rsp), %r10
	addq	$32, %rsp
	.cfi_def_cfa_offset 288
.L757:
	movl	88(%rsp), %eax
	addl	%r11d, %eax
	leal	10(%rax), %ecx
	cmpl	%ecx, 80(%rsp)
	jle	.L758
	movl	%r10d, %edx
	addl	$40, %eax
	movl	%ecx, 80(%rsp)
	sall	$5, %edx
	subl	%r10d, %edx
	cmpl	%edx, %eax
	setl	%al
	movzbl	%al, %eax
	subq	%rax, %r10
.L758:
	testl	%r11d, %r11d
	jle	.L759
	subl	$25, %r11d
	movl	$0, %eax
	cmovs	%eax, %r11d
	jmp	.L760
.L853:
	xorl	%eax, %eax
.L707:
	addq	$232, %rsp
	.cfi_remember_state
	.cfi_def_cfa_offset 56
	popq	%rbx
	.cfi_def_cfa_offset 48
	popq	%rbp
	.cfi_def_cfa_offset 40
	popq	%r12
	.cfi_def_cfa_offset 32
	popq	%r13
	.cfi_def_cfa_offset 24
	popq	%r14
	.cfi_def_cfa_offset 16
	popq	%r15
	.cfi_def_cfa_offset 8
	ret
.L860:
	.cfi_restore_state
	movq	200(%rsp), %rsi
	movq	96(%rsp), %rax
	movq	$0, 80(%rsp)
	addq	%rsi, %rax
	movq	%rax, 128(%rsp)
	addq	%rsi, %rax
	movq	%rax, %r15
	movq	%rax, 40(%rsp)
	movq	%rsi, %rax
	addq	%rsi, %r15
	movq	64(%rsp), %rsi
	addq	%r15, %rax
	movq	%r15, %r14
	leaq	0(,%rsi,4), %rbx
	subl	$1, %esi
	movq	%rax, 24(%rsp)
	movl	%esi, 216(%rsp)
	movl	136(%rsp), %esi
	movq	%rbx, 192(%rsp)
	movl	$2147473409, %ebx
	subl	$1, %esi
	movl	%esi, 140(%rsp)
	movq	104(%rsp), %rsi
	salq	$3, %rsi
	movq	%rsi, 56(%rsp)
	movq	8(%rsp), %rsi
	leaq	(%rax,%rsi,4), %rax
	movq	%rax, 32(%rsp)
	leaq	4+PRIMES(%rip), %rax
	movq	%rax, 88(%rsp)
	.p2align 4,,10
	.p2align 3
.L743:
	movl	$2, %eax
	movl	$2, %edx
	movl	%ebx, %edi
	subl	%ebx, %eax
	movl	%eax, %ecx
	imull	%ebx, %ecx
	subl	%ecx, %edx
	imull	%edx, %eax
	movl	$2, %edx
	movl	%eax, %ecx
	imull	%ebx, %ecx
	subl	%ecx, %edx
	imull	%edx, %eax
	movl	$2, %edx
	movl	%eax, %ecx
	imull	%ebx, %ecx
	subl	%ecx, %edx
	imull	%edx, %eax
	movl	%eax, %edx
	imull	%ebx, %edx
	subl	$2, %edx
	imull	%edx, %eax
	andl	$2147483647, %eax
	movl	%eax, %esi
	movl	%eax, 72(%rsp)
	call	modp_R2
	movq	64(%rsp), %rsi
	movl	%eax, 48(%rsp)
	cmpq	%rsi, 80(%rsp)
	je	.L863
	movq	88(%rsp), %rax
	movl	72(%rsp), %r9d
	movl	%ebx, %r8d
	movq	128(%rsp), %rsi
	movl	136(%rsp), %edx
	movl	(%rax), %ecx
	movq	96(%rsp), %rdi
	call	modp_mkgm2
	movq	80(%rsp), %rax
	movq	64(%rsp), %rsi
	cmpq	%rsi, %rax
	jnb	.L721
	leaq	0(,%rax,4), %rbp
	movq	144(%rsp), %rax
	xorl	%edx, %edx
	leaq	(%rax,%rbp), %rdi
	addq	152(%rsp), %rbp
	xorl	%eax, %eax
	cmpq	$1, %rsi
	jne	.L864
	movq	160(%rsp), %rsi
	movq	40(%rsp), %r8
	.p2align 4,,10
	.p2align 3
.L722:
	movl	(%rdi,%rdx), %ecx
	movl	%ecx, (%r8,%rax,4)
	movl	0(%rbp,%rdx), %ecx
	addq	$4, %rdx
	movl	%ecx, (%r14,%rax,4)
	addq	$1, %rax
	cmpq	%rax, %rsi
	jne	.L722
.L724:
	movl	136(%rsp), %r15d
	testl	%r15d, %r15d
	je	.L726
	movq	64(%rsp), %r13
	movl	72(%rsp), %r9d
	movl	%ebx, %r8d
	movl	%r15d, %ecx
	movq	128(%rsp), %r12
	movq	%r13, %rsi
	movq	%r12, %rdx
	call	modp_iNTT2_ext.part.0
	movl	72(%rsp), %r9d
	movl	%ebx, %r8d
	movl	%r15d, %ecx
	movq	%r12, %rdx
	movq	%r13, %rsi
	movq	%rbp, %rdi
	call	modp_iNTT2_ext.part.0
.L726:
	cmpq	$0, 8(%rsp)
	je	.L735
.L866:
	xorl	%edx, %edx
	xorl	%eax, %eax
	cmpq	$1, 104(%rsp)
	jne	.L865
	movq	8(%rsp), %rsi
	movq	112(%rsp), %rdi
	movq	120(%rsp), %r8
	movq	24(%rsp), %r9
	movq	32(%rsp), %r10
	.p2align 4,,10
	.p2align 3
.L736:
	movl	(%rdi,%rdx), %ecx
	movl	%ecx, (%r9,%rax,4)
	movl	(%r8,%rdx), %ecx
	addq	$4, %rdx
	movl	%ecx, (%r10,%rax,4)
	addq	$1, %rax
	cmpq	%rax, %rsi
	jne	.L736
.L738:
	movl	140(%rsp), %edx
	testl	%edx, %edx
	je	.L773
	movl	72(%rsp), %r13d
	movl	140(%rsp), %ebp
	movl	%ebx, %ecx
	movq	96(%rsp), %r15
	movq	24(%rsp), %rdi
	movl	%r13d, %r8d
	movl	%ebp, %edx
	movq	%r15, %rsi
	call	modp_NTT2_ext.part.0.constprop.0
	movq	32(%rsp), %rdi
	movl	%r13d, %r8d
	movl	%ebx, %ecx
	movl	%ebp, %edx
	movq	%r15, %rsi
	call	modp_NTT2_ext.part.0.constprop.0
.L773:
	movl	48(%rsp), %eax
	movl	72(%rsp), %r10d
	movl	%ebx, %r9d
	xorl	%ecx, %ecx
	movq	120(%rsp), %rbp
	movq	112(%rsp), %r11
	movq	%rax, 48(%rsp)
	.p2align 4,,10
	.p2align 3
.L741:
	movq	40(%rsp), %rax
	movq	48(%rsp), %r15
	movl	(%r14,%rcx,8), %r8d
	movl	(%rax,%rcx,8), %esi
	movl	4(%rax,%rcx,8), %edi
	movq	24(%rsp), %rax
	movl	(%rax,%rcx,4), %edx
	imulq	%r15, %rdx
	movq	%rdx, %rax
	imulq	%r10, %rax
	andl	$2147483647, %eax
	imulq	%r9, %rax
	addq	%rdx, %rax
	movq	32(%rsp), %rdx
	shrq	$31, %rax
	subl	%ebx, %eax
	movl	(%rdx,%rcx,4), %r12d
	movl	%eax, %r13d
	sarl	$31, %r13d
	imulq	%r15, %r12
	movl	4(%r14,%rcx,8), %r15d
	andl	%ebx, %r13d
	addl	%eax, %r13d
	movl	%r13d, %r13d
	movq	%r12, %rdx
	imulq	%r13, %r15
	imulq	%r10, %rdx
	imulq	%r13, %r8
	movq	%r15, %rax
	imulq	%r10, %rax
	andl	$2147483647, %edx
	imulq	%r9, %rdx
	andl	$2147483647, %eax
	imulq	%r9, %rax
	addq	%r12, %rdx
	shrq	$31, %rdx
	subl	%ebx, %edx
	addq	%r15, %rax
	movl	%edx, %r12d
	shrq	$31, %rax
	sarl	$31, %r12d
	subl	%ebx, %eax
	andl	%ebx, %r12d
	movl	%eax, %r15d
	sarl	$31, %r15d
	andl	%ebx, %r15d
	addl	%r15d, %eax
	movq	16(%rsp), %r15
	movl	%eax, (%r11)
	movq	%r8, %rax
	imulq	%r10, %rax
	andl	$2147483647, %eax
	imulq	%r9, %rax
	addl	%r12d, %edx
	addq	$1, %rcx
	movl	%edx, %edx
	imulq	%rdx, %rdi
	addq	%r8, %rax
	imulq	%rdx, %rsi
	shrq	$31, %rax
	subl	%ebx, %eax
	movl	%eax, %r8d
	sarl	$31, %r8d
	andl	%ebx, %r8d
	addl	%r8d, %eax
	movl	%eax, (%r11,%r15)
	movq	%rdi, %rax
	imulq	%r10, %rax
	andl	$2147483647, %eax
	imulq	%r9, %rax
	addq	%rdi, %rax
	shrq	$31, %rax
	subl	%ebx, %eax
	movl	%eax, %edi
	sarl	$31, %edi
	andl	%ebx, %edi
	addl	%edi, %eax
	movl	%eax, 0(%rbp)
	movq	%rsi, %rax
	imulq	%r10, %rax
	andl	$2147483647, %eax
	imulq	%r9, %rax
	addq	%rsi, %rax
	shrq	$31, %rax
	subl	%ebx, %eax
	cltd
	andl	%ebx, %edx
	addl	%edx, %eax
	movl	%eax, 0(%rbp,%r15)
	movq	56(%rsp), %rax
	addq	%rax, %r11
	addq	%rax, %rbp
	cmpq	%rcx, 8(%rsp)
	ja	.L741
.L742:
	movl	136(%rsp), %ecx
	testl	%ecx, %ecx
	je	.L739
.L740:
	movl	72(%rsp), %r12d
	movl	136(%rsp), %r13d
	movl	%ebx, %r8d
	movq	128(%rsp), %rbp
	movq	104(%rsp), %r15
	movq	112(%rsp), %rdi
	movl	%r12d, %r9d
	movl	%r13d, %ecx
	movq	%rbp, %rdx
	movq	%r15, %rsi
	call	modp_iNTT2_ext.part.0
	movq	120(%rsp), %rdi
	movl	%r12d, %r9d
	movl	%ebx, %r8d
	movl	%r13d, %ecx
	movq	%rbp, %rdx
	movq	%r15, %rsi
	call	modp_iNTT2_ext.part.0
.L739:
	addq	$1, 80(%rsp)
	movq	80(%rsp), %rax
	addq	$12, 88(%rsp)
	movq	88(%rsp), %rsi
	addq	$4, 112(%rsp)
	addq	$4, 120(%rsp)
	cmpq	%rax, 104(%rsp)
	je	.L708
	movl	-4(%rsi), %ebx
	jmp	.L743
.L863:
	movq	80(%rsp), %r15
	movq	96(%rsp), %rbp
	movq	160(%rsp), %r12
	movq	144(%rsp), %rdi
	movq	%rbp, %r8
	movq	%r15, %rdx
	movq	%r15, %rsi
	movq	%r12, %rcx
	call	zint_rebuild_CRT.constprop.3
	movq	%rbp, %r8
	movq	%r12, %rcx
	movq	%r15, %rdx
	movq	152(%rsp), %rdi
	movq	%r15, %rsi
	call	zint_rebuild_CRT.constprop.3
	movq	88(%rsp), %rax
	movl	%ebx, %r8d
	movq	%rbp, %rdi
	movl	72(%rsp), %r9d
	movl	136(%rsp), %edx
	movl	(%rax), %ecx
	movq	128(%rsp), %rsi
	call	modp_mkgm2
.L721:
	movl	216(%rsp), %r9d
	movl	$-2147483648, %r15d
	subl	%ebx, %r15d
	testl	%r9d, %r9d
	je	.L727
	movl	48(%rsp), %r8d
	movl	72(%rsp), %esi
	movl	%ebx, %edx
	xorl	%ecx, %ecx
	movl	$1, %edi
	movl	%r8d, %eax
	.p2align 4,,10
	.p2align 3
.L729:
	btl	%ecx, %r9d
	jnc	.L728
	imulq	%rax, %r15
	movq	%rsi, %r8
	imulq	%r15, %r8
	andl	$2147483647, %r8d
	imulq	%rdx, %r8
	addq	%r15, %r8
	shrq	$31, %r8
	subl	%ebx, %r8d
	movl	%r8d, %r15d
	sarl	$31, %r15d
	andl	%ebx, %r15d
	addl	%r8d, %r15d
.L728:
	imulq	%rax, %rax
	addl	$1, %ecx
	movq	%rax, %r8
	movq	%rsi, %rax
	imulq	%r8, %rax
	andl	$2147483647, %eax
	imulq	%rdx, %rax
	addq	%r8, %rax
	shrq	$31, %rax
	subl	%ebx, %eax
	movl	%eax, %r8d
	sarl	$31, %r8d
	andl	%ebx, %r8d
	addl	%r8d, %eax
	movl	%edi, %r8d
	sall	%cl, %r8d
	cmpl	%r8d, %r9d
	jnb	.L729
.L727:
	movq	%r14, %r12
	movq	40(%rsp), %r13
	movl	48(%rsp), %r10d
	movl	%ebx, %r9d
	movq	%r14, 184(%rsp)
	movq	152(%rsp), %rbp
	movq	144(%rsp), %r11
	movl	72(%rsp), %r8d
	movq	192(%rsp), %r14
	.p2align 4,,10
	.p2align 3
.L733:
	movq	64(%rsp), %rax
	testq	%rax, %rax
	je	.L730
	leaq	-1(%rax), %rsi
	xorl	%edx, %edx
	movq	%rsi, %rdi
	.p2align 4,,10
	.p2align 3
.L731:
	movl	%edx, %eax
	imulq	%r10, %rax
	movq	%rax, %rdx
	imulq	%r8, %rdx
	andl	$2147483647, %edx
	imulq	%r9, %rdx
	addq	%rdx, %rax
	movl	(%r11,%rdi,4), %edx
	shrq	$31, %rax
	subl	%ebx, %eax
	subl	%ebx, %edx
	movl	%eax, %ecx
	subl	%ebx, %eax
	sarl	$31, %ecx
	andl	%ebx, %ecx
	addl	%ecx, %eax
	addl	%edx, %eax
	sarl	$31, %edx
	andl	%ebx, %edx
	addl	%edx, %eax
	cltd
	andl	%ebx, %edx
	addl	%eax, %edx
	subq	$1, %rdi
	jnb	.L731
	movl	-4(%r11,%r14), %eax
	shrl	$30, %eax
	negl	%eax
	andl	%r15d, %eax
	subl	%eax, %edx
	movl	%edx, %eax
	sarl	$31, %eax
	andl	%ebx, %eax
	addl	%eax, %edx
	movl	%edx, 0(%r13)
	xorl	%edx, %edx
	.p2align 4,,10
	.p2align 3
.L732:
	movl	%edx, %eax
	movl	0(%rbp,%rsi,4), %edx
	imulq	%r10, %rax
	subl	%ebx, %edx
	movq	%rax, %rcx
	imulq	%r8, %rcx
	andl	$2147483647, %ecx
	imulq	%r9, %rcx
	addq	%rax, %rcx
	shrq	$31, %rcx
	subl	%ebx, %ecx
	movl	%ecx, %eax
	subl	%ebx, %ecx
	sarl	$31, %eax
	andl	%ebx, %eax
	addl	%ecx, %eax
	addl	%edx, %eax
	sarl	$31, %edx
	andl	%ebx, %edx
	addl	%edx, %eax
	cltd
	andl	%ebx, %edx
	addl	%eax, %edx
	subq	$1, %rsi
	jnb	.L732
	movl	-4(%rbp,%r14), %eax
	shrl	$30, %eax
	negl	%eax
	andl	%r15d, %eax
	subl	%eax, %edx
	movl	%edx, %eax
	sarl	$31, %eax
	andl	%ebx, %eax
	addl	%eax, %edx
.L776:
	movl	%edx, (%r12)
	addq	%r14, %r11
	addq	%r14, %rbp
	addq	$4, %r12
	addq	$4, %r13
	cmpq	24(%rsp), %r12
	jne	.L733
	movl	136(%rsp), %r15d
	movq	184(%rsp), %r14
	testl	%r15d, %r15d
	je	.L726
	movl	72(%rsp), %r13d
	movq	96(%rsp), %rbp
	movl	%ebx, %ecx
	movl	%r15d, %edx
	movq	40(%rsp), %rdi
	movl	%r13d, %r8d
	movq	%rbp, %rsi
	call	modp_NTT2_ext.part.0.constprop.0
	movl	%r13d, %r8d
	movl	%ebx, %ecx
	movl	%r15d, %edx
	movq	%rbp, %rsi
	movq	%r14, %rdi
	call	modp_NTT2_ext.part.0.constprop.0
	cmpq	$0, 8(%rsp)
	jne	.L866
.L735:
	movl	140(%rsp), %eax
	testl	%eax, %eax
	je	.L740
	movl	72(%rsp), %r13d
	movl	140(%rsp), %ebp
	movl	%ebx, %ecx
	movq	96(%rsp), %r15
	movq	24(%rsp), %rdi
	movl	%r13d, %r8d
	movl	%ebp, %edx
	movq	%r15, %rsi
	call	modp_NTT2_ext.part.0.constprop.0
	movq	32(%rsp), %rdi
	movl	%r13d, %r8d
	movl	%ebx, %ecx
	movl	%ebp, %edx
	movq	%r15, %rsi
	call	modp_NTT2_ext.part.0.constprop.0
	jmp	.L742
	.p2align 4,,10
	.p2align 3
.L730:
	movl	$0, 0(%r13)
	xorl	%edx, %edx
	jmp	.L776
.L865:
	movq	16(%rsp), %rsi
	movq	8(%rsp), %rdi
	movq	112(%rsp), %r8
	movq	120(%rsp), %r9
	movq	24(%rsp), %r10
	movq	32(%rsp), %r11
	.p2align 4,,10
	.p2align 3
.L737:
	movl	(%r8,%rdx), %ecx
	movl	%ecx, (%r10,%rax,4)
	movl	(%r9,%rdx), %ecx
	addq	%rsi, %rdx
	movl	%ecx, (%r11,%rax,4)
	addq	$1, %rax
	cmpq	%rax, %rdi
	jne	.L737
	jmp	.L738
.L864:
	movq	192(%rsp), %rsi
	movq	160(%rsp), %r8
	movq	40(%rsp), %r9
	.p2align 4,,10
	.p2align 3
.L723:
	movl	(%rdi,%rdx), %ecx
	movl	%ecx, (%r9,%rax,4)
	movl	0(%rbp,%rdx), %ecx
	addq	%rsi, %rdx
	movl	%ecx, (%r14,%rax,4)
	addq	$1, %rax
	cmpq	%rax, %r8
	jne	.L723
	jmp	.L724
.L861:
	movsd	.LC19(%rip), %xmm0
	negl	%eax
	jmp	.L748
.L862:
	subq	$8, %rsp
	.cfi_def_cfa_offset 296
	pushq	80(%rsp)
	.cfi_def_cfa_offset 304
	pushq	%r12
	.cfi_def_cfa_offset 312
	movl	%esi, 32(%rsp)
	pushq	%rsi
	.cfi_def_cfa_offset 320
	movq	%r10, %rsi
	pushq	%rax
	.cfi_def_cfa_offset 328
	movl	%eax, 80(%rsp)
	pushq	%rbp
	.cfi_def_cfa_offset 336
	movq	112(%rsp), %r9
	movq	192(%rsp), %rcx
	movq	152(%rsp), %rdx
	movq	216(%rsp), %rdi
	movq	%r9, %r8
	movq	%r10, 80(%rsp)
	call	poly_sub_scaled_ntt
	addq	$40, %rsp
	.cfi_def_cfa_offset 296
	pushq	80(%rsp)
	.cfi_def_cfa_offset 304
	pushq	%r12
	.cfi_def_cfa_offset 312
	movl	32(%rsp), %esi
	pushq	%rsi
	.cfi_def_cfa_offset 320
	movl	72(%rsp), %eax
	pushq	%rax
	.cfi_def_cfa_offset 328
	pushq	%rbp
	.cfi_def_cfa_offset 336
	movq	80(%rsp), %r10
	movq	112(%rsp), %r9
	movq	200(%rsp), %rcx
	movq	152(%rsp), %rdx
	movq	224(%rsp), %rdi
	movq	%r10, %rsi
	movq	%r9, %r8
	movq	%r10, 56(%rsp)
	call	poly_sub_scaled_ntt
	addq	$48, %rsp
	.cfi_def_cfa_offset 288
	movq	8(%rsp), %r10
	movl	48(%rsp), %r11d
	jmp	.L757
.L786:
	movapd	%xmm4, %xmm1
	jmp	.L749
.L759:
	movq	104(%rsp), %rbx
	salq	$2, %rbx
	cmpq	64(%rsp), %r10
	jnb	.L771
	movq	64(%rsp), %rdi
	movq	176(%rsp), %rbp
	leaq	0(,%r10,4), %rsi
	movq	168(%rsp), %rdx
	subq	%r10, %rdi
	leaq	0(%rbp,%rsi), %r9
	movq	%rdi, %rax
	movq	%rdi, %r12
	leaq	-1(%rdi), %r8
	movq	%rdi, 8(%rsp)
	shrq	$2, %rax
	andq	$-4, %r12
	leaq	(%rdx,%rsi), %r11
	salq	$4, %rax
	cmpq	$2, %r8
	movq	%rax, 32(%rsp)
	leaq	(%r10,%r12), %rax
	cmovbe	%r10, %rax
	xorl	%r13d, %r13d
	movq	%rbp, %r10
	leaq	0(,%rax,4), %rcx
	leaq	1(%rax), %r14
	addq	$2, %rax
	movq	%rax, 24(%rsp)
	leaq	8(%rcx), %r15
	movq	%r14, 16(%rsp)
	leaq	4(%rcx), %r14
.L770:
	movl	-4(%rdx,%rsi), %eax
	shrl	$30, %eax
	negl	%eax
	shrl	%eax
	cmpq	$2, %r8
	jbe	.L763
	movq	32(%rsp), %rbp
	movd	%eax, %xmm7
	movq	8(%rsp), %rdi
	pshufd	$0, %xmm7, %xmm0
	addq	%r11, %rbp
	movq	%rbp, 40(%rsp)
	movq	%r11, %rbp
.L764:
	movups	%xmm0, 0(%rbp)
	addq	$16, %rbp
	cmpq	%rbp, 40(%rsp)
	jne	.L764
	movq	%rdi, 8(%rsp)
	cmpq	%rdi, %r12
	je	.L765
.L763:
	movl	%eax, (%rdx,%rcx)
	movl	%eax, %edi
	movq	64(%rsp), %rbp
	movq	16(%rsp), %rax
	cmpq	%rax, %rbp
	jbe	.L766
	movq	24(%rsp), %rax
	movl	%edi, (%rdx,%r14)
	cmpq	%rax, %rbp
	jbe	.L767
	movl	%edi, (%rdx,%r15)
.L767:
	movl	-4(%r10,%rsi), %eax
	shrl	$30, %eax
	negl	%eax
	shrl	%eax
	cmpq	$2, %r8
	jbe	.L867
.L777:
	movq	32(%rsp), %rbp
	movd	%eax, %xmm7
	movq	8(%rsp), %rdi
	pshufd	$0, %xmm7, %xmm0
	addq	%r9, %rbp
	movq	%rbp, 40(%rsp)
	movq	%r9, %rbp
.L768:
	movups	%xmm0, 0(%rbp)
	addq	$16, %rbp
	cmpq	40(%rsp), %rbp
	jne	.L768
	movq	%rdi, 8(%rsp)
	cmpq	%rdi, %r12
	je	.L769
	movl	%eax, (%r10,%rcx)
	movq	16(%rsp), %rdi
	cmpq	%rdi, 64(%rsp)
	jbe	.L769
.L779:
	movl	%eax, (%r10,%r14)
	movq	24(%rsp), %rbp
	cmpq	%rbp, 64(%rsp)
	jbe	.L769
	movl	%eax, (%r10,%r15)
.L769:
	addq	$1, %r13
	addq	%rbx, %rdx
	addq	%rbx, %r10
	addq	%rbx, %r11
	addq	%rbx, %r9
	cmpq	%r13, 160(%rsp)
	jne	.L770
.L771:
	movq	160(%rsp), %r13
	movq	64(%rsp), %r14
	xorl	%ebp, %ebp
	movq	168(%rsp), %rcx
	addq	%r13, %r13
	salq	$2, %r14
	movq	%rcx, %r12
.L762:
	movq	%r12, %rsi
	movq	%rcx, %rdi
	movq	%r14, %rdx
	addq	$1, %rbp
	call	memmove@PLT
	addq	%rbx, %r12
	movq	%rax, %rcx
	addq	%r14, %rcx
	cmpq	%r13, %rbp
	jne	.L762
	movl	$1, %eax
	jmp	.L707
.L765:
	movl	-4(%r10,%rsi), %eax
	shrl	$30, %eax
	negl	%eax
	shrl	%eax
	jmp	.L777
.L867:
	movl	%eax, (%r10,%rcx)
	jmp	.L779
.L766:
	movl	-4(%r10,%rsi), %eax
	shrl	$30, %eax
	negl	%eax
	shrl	%eax
	cmpq	$2, %r8
	ja	.L777
	movl	%eax, (%r10,%rcx)
	jmp	.L769
	.cfi_endproc
.LFE5563:
	.size	solve_NTRU_intermediate, .-solve_NTRU_intermediate
	.p2align 4
	.globl	falcon_inner_keygen
	.type	falcon_inner_keygen, @function
falcon_inner_keygen:
.LFB5568:
	.cfi_startproc
	endbr64
	pushq	%r15
	.cfi_def_cfa_offset 16
	.cfi_offset 15, -16
	movq	%r8, %rax
	movl	$4, %r10d
	pushq	%r14
	.cfi_def_cfa_offset 24
	.cfi_offset 14, -24
	pushq	%r13
	.cfi_def_cfa_offset 32
	.cfi_offset 13, -32
	movl	$8, %r13d
	pushq	%r12
	.cfi_def_cfa_offset 40
	.cfi_offset 12, -40
	pushq	%rbp
	.cfi_def_cfa_offset 48
	.cfi_offset 6, -48
	movq	%rsi, %rbp
	movq	%r9, %rsi
	pushq	%rbx
	.cfi_def_cfa_offset 56
	.cfi_offset 3, -56
	movl	$1, %ebx
	subq	$2168, %rsp
	.cfi_def_cfa_offset 2224
	movq	%rcx, 1088(%rsp)
	movzbl	2224(%rsp), %ecx
	movq	%rdi, 328(%rsp)
	salq	%cl, %rbx
	salq	%cl, %r13
	movq	%rdx, 40(%rsp)
	movl	$2, %edx
	movq	%rbx, %r15
	movq	%r13, %rbx
	addq	2232(%rsp), %r13
	salq	%cl, %rdx
	movq	%r13, %rdi
	addq	2232(%rsp), %rdx
	movq	%r15, %rcx
	movq	%rbx, 536(%rsp)
	addq	%rbx, %rdi
	testq	%r9, %r9
	cmove	2232(%rsp), %rsi
	movq	%rdi, 544(%rsp)
	movq	%rdx, %rdi
	cmovne	2232(%rsp), %rdi
	shrq	%rcx
	leaq	0(,%rcx,4), %rdx
	movq	%rcx, %r11
	movzbl	2224(%rsp), %ecx
	movq	%rsi, 872(%rsp)
	movq	%rdi, 880(%rsp)
	movq	2232(%rsp), %rdi
	salq	%cl, %r10
	addq	%rdx, %rdi
	movq	%r10, 144(%rsp)
	leaq	(%rdi,%rdx), %r8
	movq	%rdi, 376(%rsp)
	movq	%r8, %r9
	movq	%r8, 456(%rsp)
	addq	%r10, %r9
	movq	%r9, 464(%rsp)
	movq	%r9, %rbx
	movq	2232(%rsp), %r9
	addq	%r10, %rbx
	addq	%r10, %r9
	movq	%rbx, 552(%rsp)
	addq	%r10, %rbx
	movq	%rbx, 888(%rsp)
	movq	%r9, %rbx
	addq	%r10, %rbx
	movq	%r9, 112(%rsp)
	movq	%rbx, %rdi
	movq	%rbx, 96(%rsp)
	addq	%r10, %rdi
	movq	%rdi, %rbx
	addq	%r10, %rdi
	movq	%rdi, %rcx
	addq	%r10, %rdi
	movq	%rdi, 72(%rsp)
	addq	%r10, %rdi
	movq	%rcx, %r14
	movq	%r13, %r10
	movq	%rdi, 104(%rsp)
	movq	%rbp, %rdi
	movq	%rcx, 120(%rsp)
	subq	2232(%rsp), %r14
	movq	%r14, %rcx
	andl	$7, %r14d
	movq	%rbx, 88(%rsp)
	movq	%r14, 1072(%rsp)
	leaq	8(%rcx), %r14
	movq	%r14, 1112(%rsp)
	movq	%rbx, %r14
	subq	2232(%rsp), %r14
	movq	%r14, %rcx
	andl	$7, %r14d
	testq	%rax, %rax
	movq	%r11, 368(%rsp)
	cmove	%r13, %rax
	movq	%rbp, %r13
	movq	%r14, 1104(%rsp)
	leaq	0(,%r11,8), %r14
	movq	%r14, 384(%rsp)
	leaq	-1(%r15), %r14
	leaq	8(%rcx), %rsi
	movq	%rax, 448(%rsp)
	movl	2224(%rsp), %eax
	movq	%r14, 312(%rsp)
	subl	$1, %eax
	movq	%rsi, 864(%rsp)
	movl	%eax, 1084(%rsp)
	movl	$10, %eax
	subl	2224(%rsp), %eax
	cmpq	$14, %r14
	movl	%eax, 444(%rsp)
	movq	%r15, %rax
	seta	8(%rsp)
	addq	%rax, %r13
	cmpq	%r10, %rbp
	movq	%rax, %r14
	setnb	%al
	cmpq	%r13, 2232(%rsp)
	movzbl	8(%rsp), %r15d
	movq	%r13, 288(%rsp)
	setnb	%cl
	movq	%rbp, %r13
	movq	%r10, 136(%rsp)
	orl	%ecx, %eax
	movq	%r14, %rcx
	shrq	$4, %r14
	movq	%r14, 400(%rsp)
	salq	$7, %r14
	andl	%r15d, %eax
	movq	2232(%rsp), %r15
	movq	%r14, 64(%rsp)
	addq	2232(%rsp), %r14
	movq	%r14, 816(%rsp)
	movq	%rcx, %r14
	andq	$-16, %r14
	movb	%al, 1082(%rsp)
	leaq	0(,%r14,8), %rax
	addq	%r14, %r13
	leaq	1(%r14), %rsi
	addq	%rax, %r15
	movq	%r13, 488(%rsp)
	movq	%rbp, %r13
	leaq	16(%rax), %r8
	movq	%r15, 912(%rsp)
	addq	%rsi, %r13
	leaq	3(%r14), %r10
	leaq	24(%rax), %r9
	movq	2232(%rsp), %r15
	movq	%rsi, 176(%rsp)
	leaq	8(%rax), %rsi
	leaq	40(%rax), %r11
	movq	%r13, 480(%rsp)
	movq	%rdi, %r13
	leaq	48(%rax), %rbx
	addq	%rsi, %r15
	movq	%r15, 904(%rsp)
	leaq	2(%r14), %r15
	movq	%r15, 168(%rsp)
	movq	2232(%rsp), %r12
	addq	%r15, %rbp
	movq	%rbp, 472(%rsp)
	movq	2232(%rsp), %rbp
	addq	%r8, %r12
	movq	%r10, 160(%rsp)
	movq	%r12, 896(%rsp)
	movq	%rdi, %r12
	addq	%r10, %r12
	leaq	32(%rax), %r10
	movq	%r12, 648(%rsp)
	movq	2232(%rsp), %r12
	addq	%r10, %rbp
	movq	%rbp, 1376(%rsp)
	leaq	5(%r14), %rbp
	addq	%r9, %r12
	movq	%rbp, 272(%rsp)
	movq	%r12, 1384(%rsp)
	leaq	4(%r14), %r12
	addq	%r12, %r13
	movq	%r12, 280(%rsp)
	movq	%rdi, %r12
	addq	%rbp, %r12
	movq	%r13, 640(%rsp)
	movq	%rdi, %r13
	leaq	56(%rax), %rbp
	movq	%r12, 632(%rsp)
	movq	2232(%rsp), %r12
	addq	%r11, %r12
	movq	%r12, 1368(%rsp)
	leaq	6(%r14), %r12
	addq	%r12, %r13
	movq	%r12, 264(%rsp)
	movq	%rdi, %r12
	movq	%r13, 624(%rsp)
	movq	2232(%rsp), %r13
	addq	%rbx, %r13
	movq	%r13, 1360(%rsp)
	leaq	7(%r14), %r13
	movq	%r13, %r15
	movq	%rdi, %r13
	addq	%r15, %r13
	movq	%r15, 256(%rsp)
	movq	%r14, %r15
	movq	%r13, 616(%rsp)
	movq	2232(%rsp), %r13
	addq	%rbp, %r13
	movq	%r13, 1352(%rsp)
	leaq	8(%r14), %r13
	addq	%r13, %r12
	movq	%r13, 248(%rsp)
	movq	%rdi, %r13
	movq	%r12, 608(%rsp)
	leaq	64(%rax), %r12
	movq	%r12, 56(%rsp)
	addq	2232(%rsp), %r12
	movq	%r12, 1344(%rsp)
	leaq	9(%r14), %r12
	addq	$10, %r14
	addq	%r12, %r13
	movq	%r12, 240(%rsp)
	leaq	72(%rax), %r12
	movq	%r13, 600(%rsp)
	movq	2232(%rsp), %r13
	movq	%r12, 48(%rsp)
	addq	%r12, %r13
	movq	%r13, 1336(%rsp)
	movq	%r14, %r13
	movq	%rdi, %r14
	movq	2232(%rsp), %r12
	addq	%r13, %r14
	movq	%rdi, 32(%rsp)
	movq	%r15, %rdi
	movq	%r14, 592(%rsp)
	leaq	80(%rax), %r14
	addq	%r14, %r12
	movq	%r13, 232(%rsp)
	movq	%r12, 1328(%rsp)
	leaq	11(%r15), %r12
	movq	%r12, %r13
	movq	32(%rsp), %r12
	movq	%rcx, 24(%rsp)
	movq	%r13, 224(%rsp)
	movq	%r12, %r15
	movq	%rdi, 128(%rsp)
	addq	%r13, %r15
	movq	2232(%rsp), %r13
	movq	%r15, 584(%rsp)
	leaq	88(%rax), %r15
	addq	%r15, %r13
	movq	%r13, 1320(%rsp)
	leaq	12(%rdi), %r13
	addq	%r13, %r12
	movq	%r13, 216(%rsp)
	leaq	96(%rax), %r13
	movq	%r12, 576(%rsp)
	movq	2232(%rsp), %r12
	movq	%r13, 16(%rsp)
	addq	%r13, %r12
	movq	%r12, 1312(%rsp)
	leaq	13(%rdi), %r12
	movq	%r12, %r13
	movq	32(%rsp), %r12
	movq	%r13, 208(%rsp)
	addq	%r13, %r12
	leaq	14(%rdi), %r13
	leaq	112(%rax), %rdi
	movq	%r12, 568(%rsp)
	leaq	104(%rax), %r12
	movq	%r12, (%rsp)
	addq	2232(%rsp), %r12
	movq	%r12, 1304(%rsp)
	movq	32(%rsp), %r12
	movq	%r13, 200(%rsp)
	addq	%r13, %r12
	movq	536(%rsp), %r13
	movq	%r12, 800(%rsp)
	movq	2232(%rsp), %r12
	addq	%rdi, %r12
	movq	%r12, 1936(%rsp)
	movq	40(%rsp), %r12
	addq	%rcx, %r12
	movq	2232(%rsp), %rcx
	leaq	(%rcx,%r13,2), %rcx
	cmpq	%rcx, 40(%rsp)
	setnb	%cl
	cmpq	%r12, 136(%rsp)
	setnb	80(%rsp)
	movzbl	80(%rsp), %r13d
	addq	136(%rsp), %rax
	movq	%rax, 936(%rsp)
	orl	%r13d, %ecx
	movzbl	8(%rsp), %r13d
	andl	%ecx, %r13d
	movq	64(%rsp), %rcx
	addq	136(%rsp), %rcx
	movb	%r13b, 1083(%rsp)
	movq	128(%rsp), %r13
	movq	%rcx, 744(%rsp)
	movq	40(%rsp), %rcx
	addq	%rcx, %r13
	movq	%rcx, %rax
	movq	%r13, 512(%rsp)
	movq	176(%rsp), %r13
	addq	%rcx, %r13
	movq	%r13, 504(%rsp)
	movq	%rsi, %r13
	movq	136(%rsp), %rsi
	addq	%rsi, %r13
	movq	%r13, 928(%rsp)
	movq	168(%rsp), %r13
	addq	%rcx, %r13
	movq	%r13, 496(%rsp)
	movq	%r8, %r13
	addq	%rsi, %r13
	movq	%r13, 920(%rsp)
	movq	160(%rsp), %r13
	addq	%rcx, %r13
	movq	%r13, 736(%rsp)
	movq	%r9, %r13
	addq	%rsi, %r13
	movq	%r13, 1472(%rsp)
	movq	280(%rsp), %r13
	addq	%rcx, %r13
	movq	%r13, 728(%rsp)
	movq	%r10, %r13
	movq	%rsi, %r10
	addq	%rsi, %r13
	movq	%r11, %rsi
	addq	%r10, %rbx
	addq	%r10, %rbp
	movq	%r13, 1464(%rsp)
	movq	272(%rsp), %r13
	addq	%r10, %rsi
	movq	%rsi, 1456(%rsp)
	addq	%rcx, %r13
	movq	%rbx, 1448(%rsp)
	movq	%r13, 720(%rsp)
	movq	264(%rsp), %r13
	addq	%rcx, %r13
	movq	%r13, 712(%rsp)
	movq	256(%rsp), %r13
	movq	56(%rsp), %rbx
	addq	200(%rsp), %rax
	movq	%rbp, 1440(%rsp)
	addq	%rcx, %r13
	movq	%rax, 808(%rsp)
	movq	%rdi, %rax
	movq	%r13, 704(%rsp)
	movq	248(%rsp), %r13
	addq	%r10, %rbx
	movq	%rbx, 1432(%rsp)
	movq	48(%rsp), %rbx
	addq	%rcx, %r13
	movq	%r13, 696(%rsp)
	movq	240(%rsp), %r13
	addq	%r10, %rbx
	movq	%rbx, 1424(%rsp)
	movq	%r14, %rbx
	addq	%rcx, %r13
	addq	%r10, %rbx
	movq	%r13, 688(%rsp)
	movq	232(%rsp), %r13
	movq	%rbx, 1416(%rsp)
	movq	%r15, %rbx
	movq	%r10, %r15
	addq	%rcx, %r13
	addq	%r10, %rbx
	movq	%r13, 680(%rsp)
	movq	224(%rsp), %r13
	movq	%rbx, 1408(%rsp)
	addq	%rcx, %r13
	movq	%r13, 672(%rsp)
	movq	216(%rsp), %r13
	addq	%rcx, %r13
	movq	%r13, 664(%rsp)
	movq	16(%rsp), %r13
	addq	%r10, %r13
	movq	(%rsp), %r10
	movq	%r13, 1400(%rsp)
	movq	208(%rsp), %r13
	addq	%r15, %r10
	addq	%rcx, %r13
	addq	%r15, %rax
	movq	%r10, 1392(%rsp)
	movq	%rax, 1944(%rsp)
	movl	2224(%rsp), %eax
	movq	%r13, 656(%rsp)
	movq	%rcx, %r13
	addl	$1, %eax
	movl	%eax, 440(%rsp)
	movl	2224(%rsp), %eax
	addl	$2, %eax
	movl	%eax, 436(%rsp)
	movl	2224(%rsp), %eax
	movq	368(%rsp), %r11
	movq	24(%rsp), %r14
	movq	%r12, 344(%rsp)
	addl	$3, %eax
	movq	144(%rsp), %r10
	movq	384(%rsp), %rbp
	movl	%eax, 432(%rsp)
	movl	2224(%rsp), %eax
	movq	2232(%rsp), %r15
	addl	$4, %eax
	movl	%eax, 428(%rsp)
	movl	2224(%rsp), %eax
	addl	$5, %eax
	movl	%eax, 424(%rsp)
	movl	2224(%rsp), %eax
	addl	$6, %eax
	movl	%eax, 420(%rsp)
	movq	2232(%rsp), %rax
	addq	$16, %rax
	movq	%rax, %rsi
	leaq	16(%rdx), %rax
	testq	%rax, %rax
	movq	%rsi, 408(%rsp)
	setle	%cl
	cmpq	%rsi, 376(%rsp)
	leaq	-4(%r10), %rsi
	setnb	%al
	orl	%ecx, %eax
	cmpq	$1, %r11
	setne	%cl
	andl	%ecx, %eax
	movb	%al, 1999(%rsp)
	leaq	-1(%r11), %rax
	movq	%rax, 1952(%rsp)
	movq	%r14, %rax
	shrq	$3, %rax
	movq	%rax, %rbx
	salq	$2, %rax
	salq	$4, %rbx
	cmpq	$56, %rsi
	movq	%rax, 1024(%rsp)
	seta	%al
	andb	8(%rsp), %al
	addq	%rbp, %r15
	movq	%rbx, 1720(%rsp)
	movl	%eax, %r9d
	movq	%r14, %rax
	movq	%r10, %r14
	addq	%rbp, %r10
	addq	%r11, %rax
	movq	288(%rsp), %rbp
	movq	%r15, %r11
	movq	%r15, 2032(%rsp)
	leaq	(%rdx,%rax,4), %rax
	addq	2232(%rsp), %rax
	movb	%r9b, 520(%rsp)
	movq	%rax, %rcx
	movq	%r10, %rax
	addq	2232(%rsp), %r10
	addq	%r14, %rax
	addq	2232(%rsp), %rax
	cmpq	%r15, %r12
	movq	%r10, %rbx
	setbe	%dl
	cmpq	%rcx, %r13
	movq	%rax, %rdi
	movq	%r13, %r15
	movq	%r10, 2024(%rsp)
	movq	%r14, %r10
	movq	32(%rsp), %r14
	setnb	%al
	movl	%edx, %r13d
	orl	%eax, %r13d
	cmpq	%rcx, %r14
	setnb	%al
	cmpq	%r11, %rbp
	movl	%r13d, %r8d
	setbe	%dl
	orl	%edx, %eax
	andl	%r8d, %eax
	andl	%r9d, %eax
	cmpq	%rdi, %r14
	movl	%eax, %ecx
	setnb	%al
	cmpq	%rbx, %rbp
	setbe	%dl
	orl	%edx, %eax
	andl	%eax, %ecx
	cmpq	%rdi, %r15
	setnb	%al
	cmpq	%rbx, %r12
	movl	%ecx, %r12d
	setbe	%dl
	leaq	0(,%r10,4), %rcx
	orl	%edx, %eax
	andl	%eax, %r12d
	movq	400(%rsp), %rax
	movb	%r12b, 2136(%rsp)
	salq	$4, %rax
	movq	%rax, 952(%rsp)
	movq	128(%rsp), %rax
	movq	456(%rsp), %r8
	movq	464(%rsp), %r9
	salq	$2, %rax
	leaq	(%r8,%rax), %r12
	leaq	4(%rax), %rbx
	movq	%r12, 1704(%rsp)
	leaq	(%r9,%rax), %r12
	leaq	8(%rax), %rbp
	movq	%r12, 1696(%rsp)
	leaq	(%r8,%rbx), %r12
	leaq	16(%rax), %r13
	movq	%r12, 1688(%rsp)
	leaq	(%r9,%rbx), %r12
	leaq	20(%rax), %r14
	movq	%r12, 1680(%rsp)
	leaq	(%r8,%rbp), %r12
	leaq	24(%rax), %r15
	movq	%r12, 1672(%rsp)
	leaq	(%r9,%rbp), %r12
	leaq	28(%rax), %rdx
	movq	%r12, 1664(%rsp)
	leaq	12(%rax), %r12
	leaq	(%r8,%r12), %r11
	movq	%rdx, 192(%rsp)
	movq	%r11, 1656(%rsp)
	leaq	(%r9,%r12), %r11
	movq	%r11, 1648(%rsp)
	leaq	(%r8,%r13), %r11
	movq	%r11, 1640(%rsp)
	leaq	(%r9,%r13), %r11
	movq	%r11, 1632(%rsp)
	leaq	(%r8,%r14), %r11
	movq	%r11, 1624(%rsp)
	leaq	(%r9,%r14), %r11
	movq	%r11, 1616(%rsp)
	leaq	(%r8,%r15), %r11
	movq	%r11, 1608(%rsp)
	leaq	(%r9,%r15), %r11
	movq	%r11, 1600(%rsp)
	movq	%r8, %r11
	addq	%rdx, %r11
	movq	%r11, 1592(%rsp)
	movq	%r9, %r11
	addq	%rdx, %r11
	movq	%r11, 1584(%rsp)
	leaq	32(%rax), %r11
	movq	%r11, %rdx
	movq	%r8, %r11
	addq	%rdx, %r11
	movq	%rdx, 152(%rsp)
	movq	%r11, 1576(%rsp)
	movq	%r9, %r11
	addq	%rdx, %r11
	movq	%r11, 1568(%rsp)
	leaq	36(%rax), %r11
	movq	%r11, %rdx
	movq	%r8, %r11
	addq	%rdx, %r11
	movq	%rdx, 80(%rsp)
	movq	%r11, 1560(%rsp)
	movq	%r9, %r11
	addq	%rdx, %r11
	movq	%r11, 1552(%rsp)
	leaq	40(%rax), %r11
	movq	%r11, %rdx
	movq	%r8, %r11
	addq	%rdx, %r11
	movq	%rdx, 64(%rsp)
	movq	%r11, 1544(%rsp)
	movq	%r9, %r11
	addq	%rdx, %r11
	movq	%r11, 1536(%rsp)
	leaq	44(%rax), %r11
	movq	%r11, %rdi
	movq	%r8, %r11
	addq	%rdi, %r11
	movq	%rdi, 56(%rsp)
	movq	%r11, 1528(%rsp)
	movq	%r9, %r11
	addq	%rdi, %r11
	movq	%r11, 1520(%rsp)
	leaq	48(%rax), %r11
	movq	%r11, %rdx
	movq	%r8, %r11
	addq	%rdx, %r11
	movq	%r11, 1512(%rsp)
	movq	%r9, %r11
	addq	%rdx, %r11
	movq	%rdx, 48(%rsp)
	movq	%r11, 1504(%rsp)
	leaq	52(%rax), %r11
	movq	%r11, %rdi
	movq	%r8, %r11
	movq	%rcx, (%rsp)
	addq	%rdi, %r11
	movq	%rdi, 16(%rsp)
	movq	%r11, 1496(%rsp)
	movq	%r9, %r11
	addq	%rdi, %r11
	movq	104(%rsp), %rdi
	movq	%r11, 1488(%rsp)
	leaq	56(%rax), %r11
	addq	%r11, %r8
	addq	%r11, %r9
	movq	%r11, 296(%rsp)
	movq	312(%rsp), %r11
	movq	%r9, 2000(%rsp)
	leaq	(%rdi,%r11,4), %r9
	movq	%r10, %r11
	movq	%r8, 2008(%rsp)
	leaq	(%r10,%r10,2), %r8
	addq	%rcx, %r11
	movq	%r9, 944(%rsp)
	leaq	16(%r8), %r9
	leaq	16(%r11), %rdx
	movq	%r9, 560(%rsp)
	cmpq	%rdx, %r8
	movq	%r11, 352(%rsp)
	setge	%cl
	cmpq	%r9, %r11
	movq	%r8, 336(%rsp)
	setge	%dl
	movl	%ecx, %r9d
	orl	%edx, %r9d
	leaq	-4(%r8), %rdx
	movb	%r9b, 528(%rsp)
	movq	$-4, %r9
	subq	%r8, %r9
	cmpq	$8, %r9
	movq	$-4, %r9
	seta	840(%rsp)
	cmpq	$8, %rdx
	seta	320(%rsp)
	subq	%r10, %r9
	movzbl	320(%rsp), %r8d
	cmpq	$8, %r9
	seta	%r9b
	negq	%r10
	movq	%r10, 856(%rsp)
	addq	%r10, %r10
	leaq	-4(%r10), %rdx
	cmpq	$8, %rdx
	seta	360(%rsp)
	cmpq	$8, %rsi
	movzbl	360(%rsp), %r11d
	seta	%dl
	cmpq	$6, 312(%rsp)
	seta	%cl
	andl	%ecx, %edx
	movq	(%rsp), %rcx
	andl	%r9d, %edx
	andl	%r11d, %edx
	subq	$4, %rcx
	andb	840(%rsp), %dl
	andb	528(%rsp), %dl
	andl	%r8d, %edx
	cmpq	$8, %rcx
	movq	352(%rsp), %r11
	movq	336(%rsp), %r8
	seta	%cl
	movl	%edx, %esi
	andl	%ecx, %esi
	movq	112(%rsp), %rcx
	movb	%sil, 2137(%rsp)
	leaq	(%rcx,%r11), %rsi
	movq	%r10, %r11
	negq	%r11
	movq	%rsi, 2056(%rsp)
	subq	%r8, %rsi
	movq	%rsi, 2048(%rsp)
	subq	%r10, %rsi
	movq	%r11, 1120(%rsp)
	movq	24(%rsp), %r11
	movq	%rsi, 2040(%rsp)
	addq	856(%rsp), %rsi
	movq	%rsi, 1032(%rsp)
	movq	%r11, %rsi
	andq	$-4, %r11
	movq	120(%rsp), %rdx
	shrq	$2, %rsi
	movq	%r11, 184(%rsp)
	movq	%rsi, %rcx
	movq	88(%rsp), %rsi
	salq	$4, %rcx
	movq	%rcx, 304(%rsp)
	leaq	0(,%r11,4), %rcx
	leaq	(%rdi,%rcx), %rdi
	movq	%rdi, 792(%rsp)
	movq	2232(%rsp), %rdi
	addq	%rcx, %rdi
	movq	%rdi, 1000(%rsp)
	leaq	(%rsi,%rcx), %rdi
	movq	72(%rsp), %rsi
	movq	%rdi, 992(%rsp)
	movq	%rsi, %rdi
	addq	%rcx, %rdi
	movq	%rdi, 784(%rsp)
	movq	%rdx, %rdi
	addq	%rcx, %rdi
	movq	%rdi, 984(%rsp)
	leaq	1(%r11), %rdi
	movq	104(%rsp), %r11
	movq	%rdi, 776(%rsp)
	leaq	4(%rcx), %rdi
	addq	%rdi, %r11
	addq	%rdi, %rsi
	movq	%r11, 768(%rsp)
	movq	2232(%rsp), %r11
	movq	%rsi, 760(%rsp)
	leaq	(%rdx,%rdi), %rsi
	addq	%rdi, %r11
	movq	%rsi, 960(%rsp)
	movq	%r11, 976(%rsp)
	movq	88(%rsp), %r11
	addq	%rdi, %r11
	movq	%r11, 968(%rsp)
	movq	184(%rsp), %r11
	leaq	2(%r11), %rsi
	movq	104(%rsp), %r11
	movq	%rsi, 752(%rsp)
	leaq	8(%rcx), %rsi
	addq	%rsi, %r11
	movq	%r11, 832(%rsp)
	movq	2232(%rsp), %r11
	addq	%rsi, %r11
	movq	%r11, 1056(%rsp)
	movq	88(%rsp), %r11
	addq	%rsi, %r11
	movq	%r11, 1048(%rsp)
	movq	72(%rsp), %r11
	addq	%rsi, %r11
	movq	%r11, 824(%rsp)
	movq	%rdx, %r11
	movq	(%rsp), %rdx
	addq	%rsi, %r11
	cmpq	$3, 312(%rsp)
	seta	392(%rsp)
	addq	$16, %rdx
	movq	%r11, 1040(%rsp)
	movzbl	392(%rsp), %r11d
	movq	%rdx, 848(%rsp)
	movzbl	360(%rsp), %edx
	andl	%r11d, %r9d
	movq	$-4, %r11
	subq	%r10, %r11
	andl	%r9d, %edx
	andb	320(%rsp), %dl
	andb	840(%rsp), %dl
	cmpq	$8, %r11
	movzbl	528(%rsp), %r11d
	seta	%r9b
	andl	%r9d, %edx
	movq	848(%rsp), %r9
	andl	%edx, %r11d
	cmpq	%r9, %r8
	movb	%r11b, 320(%rsp)
	movq	%r8, %r11
	movq	560(%rsp), %r8
	setge	%dl
	cmpq	%r8, (%rsp)
	movzbl	320(%rsp), %r8d
	setge	%r9b
	orl	%r9d, %edx
	movq	1032(%rsp), %r9
	andl	%edx, %r8d
	subq	%r10, %r9
	movb	%r8b, 2138(%rsp)
	movq	%r9, 2072(%rsp)
	subq	%r11, %r9
	movq	%r9, %r11
	movq	%r9, 840(%rsp)
	subq	%r10, %r9
	movq	856(%rsp), %r10
	movq	%r9, 320(%rsp)
	addq	%r9, %r10
	movq	112(%rsp), %r9
	movq	%r10, 2064(%rsp)
	movq	144(%rsp), %r10
	leaq	(%r9,%rcx), %r8
	movq	%r8, 1016(%rsp)
	leaq	(%r9,%rdi), %r8
	movq	%r8, 1008(%rsp)
	leaq	(%r9,%rsi), %r8
	movq	848(%rsp), %r9
	movq	%r8, 1064(%rsp)
	movl	2224(%rsp), %r8d
	testl	%r8d, %r8d
	leaq	16(%r10,%r10), %r8
	setne	1096(%rsp)
	movq	1120(%rsp), %r10
	movq	%r8, 360(%rsp)
	cmpq	%r10, %r9
	setle	%r9b
	cmpq	%r8, (%rsp)
	movq	336(%rsp), %r8
	setge	%dl
	orl	%edx, %r9d
	cmpq	%r10, 560(%rsp)
	setle	%dl
	cmpq	360(%rsp), %r8
	setge	336(%rsp)
	orb	336(%rsp), %dl
	andl	%r9d, %edx
	movq	%r8, 336(%rsp)
	movzbl	1096(%rsp), %r9d
	andl	%edx, %r9d
	movq	(%rsp), %rdx
	movb	%r9b, 528(%rsp)
	leaq	4(%rdx), %r9
	subq	%r9, %r8
	movzbl	528(%rsp), %r9d
	cmpq	$8, %r8
	movq	1112(%rsp), %r8
	seta	%dl
	andl	%edx, %r9d
	movq	%r11, %rdx
	movq	864(%rsp), %r11
	movb	%r9b, 2139(%rsp)
	movq	2232(%rsp), %r9
	addq	%r10, %r9
	movq	1072(%rsp), %r10
	movq	%r9, 848(%rsp)
	movq	144(%rsp), %r9
	subq	%r10, %r8
	addq	%r9, %rdx
	movq	%rdx, 2080(%rsp)
	movq	2232(%rsp), %rdx
	addq	%r8, %rdx
	testq	%r10, %r10
	movq	%rdx, %r10
	cmove	120(%rsp), %r10
	movq	2232(%rsp), %rdx
	movq	%r10, 528(%rsp)
	movq	1104(%rsp), %r10
	subq	%r10, %r11
	addq	%r11, %rdx
	testq	%r10, %r10
	cmove	88(%rsp), %rdx
	movq	352(%rsp), %r11
	movq	%rdx, %r10
	addq	384(%rsp), %r10
	movq	%rdx, 864(%rsp)
	leaq	(%r9,%r11), %rdx
	movq	%r10, 560(%rsp)
	movq	2232(%rsp), %r10
	movq	320(%rsp), %r11
	addq	%rdx, %r10
	addq	%r9, %rdx
	movq	%r10, %r8
	movq	%r11, %r10
	addq	%r9, %r10
	movq	%r10, 856(%rsp)
	movq	2232(%rsp), %r10
	addq	%rdx, %r10
	cmpq	%r11, 344(%rsp)
	movq	32(%rsp), %r11
	setbe	%r9b
	cmpq	%r8, 40(%rsp)
	movq	%r10, 1072(%rsp)
	setnb	%dl
	movq	288(%rsp), %r10
	orl	%edx, %r9d
	cmpq	%r8, %r11
	movq	320(%rsp), %r8
	setnb	%dl
	cmpq	%r8, %r10
	setbe	1104(%rsp)
	movzbl	1104(%rsp), %r8d
	orl	%r8d, %edx
	movzbl	520(%rsp), %r8d
	andl	%r9d, %edx
	andl	%edx, %r8d
	cmpq	1072(%rsp), %r11
	movq	856(%rsp), %r11
	setnb	%dl
	movb	%r8b, 520(%rsp)
	cmpq	%r11, %r10
	movzbl	520(%rsp), %r10d
	setbe	%r9b
	orl	%r9d, %edx
	movq	1072(%rsp), %r9
	andl	%edx, %r10d
	cmpq	%r9, 40(%rsp)
	setnb	%dl
	cmpq	%r11, 344(%rsp)
	movb	%r10b, 520(%rsp)
	movzbl	520(%rsp), %r10d
	setbe	%r9b
	orl	%r9d, %edx
	movq	72(%rsp), %r9
	andl	%edx, %r10d
	movq	104(%rsp), %rdx
	movb	%r10b, 2140(%rsp)
	leaq	(%r9,%rax), %r10
	movq	%r10, 2088(%rsp)
	leaq	(%rdx,%rax), %r10
	movq	%r10, 1480(%rsp)
	leaq	(%r9,%rbx), %r10
	movq	%r10, 1928(%rsp)
	leaq	(%rdx,%rbx), %r10
	movq	%r10, 1920(%rsp)
	leaq	(%r9,%rbp), %r10
	movq	%r10, 1912(%rsp)
	leaq	(%rdx,%rbp), %r10
	movq	%r10, 1904(%rsp)
	leaq	(%r9,%r12), %r10
	movq	%r10, 1896(%rsp)
	leaq	(%rdx,%r12), %r10
	movq	%r10, 1888(%rsp)
	leaq	(%r9,%r13), %r10
	movq	%r10, 1880(%rsp)
	leaq	(%rdx,%r13), %r10
	movq	192(%rsp), %r8
	movq	%r10, 1872(%rsp)
	leaq	(%r9,%r14), %r10
	movq	%r10, 1864(%rsp)
	leaq	(%rdx,%r14), %r10
	movq	%r10, 1856(%rsp)
	leaq	(%r9,%r15), %r10
	movq	%r10, 1848(%rsp)
	leaq	(%rdx,%r15), %r10
	movq	%r10, 1840(%rsp)
	movq	%r9, %r10
	addq	%r8, %r10
	movq	%r10, 1832(%rsp)
	movq	%rdx, %r10
	addq	%r8, %r10
	movq	152(%rsp), %r8
	movq	%r10, 1824(%rsp)
	movq	%r9, %r10
	addq	%r8, %r10
	movq	%r10, 1816(%rsp)
	movq	%rdx, %r10
	addq	%r8, %r10
	movq	80(%rsp), %r8
	movq	%r10, 1808(%rsp)
	movq	%r9, %r10
	addq	%r8, %r10
	movq	%r10, 1800(%rsp)
	movq	%rdx, %r10
	addq	%r8, %r10
	movq	64(%rsp), %r8
	movq	%r10, 1792(%rsp)
	movq	%r9, %r10
	addq	%r8, %r10
	movq	%r10, 1784(%rsp)
	movq	%rdx, %r10
	addq	%r8, %r10
	movq	56(%rsp), %r8
	movq	%r10, 1776(%rsp)
	movq	%r9, %r10
	addq	%r8, %r10
	movq	%r10, 1768(%rsp)
	movq	%rdx, %r10
	addq	%r8, %r10
	movq	48(%rsp), %r8
	movq	%r10, 1760(%rsp)
	movq	%r9, %r10
	addq	%r8, %r10
	movq	%r10, 1752(%rsp)
	movq	%rdx, %r10
	addq	%r8, %r10
	movq	16(%rsp), %r8
	movq	%r10, 1744(%rsp)
	movq	%r9, %r10
	addq	%r8, %r10
	movq	%r10, 1736(%rsp)
	movq	%rdx, %r10
	addq	%r8, %r10
	movq	%r11, %r8
	subq	352(%rsp), %r8
	movq	%r10, 1728(%rsp)
	movq	%r9, %r10
	movq	296(%rsp), %r9
	movq	%r8, 520(%rsp)
	addq	%r9, %r10
	addq	%r9, %rdx
	movq	144(%rsp), %r9
	movq	%rdx, 2096(%rsp)
	leaq	16(%r9), %rdx
	movq	%r10, 2104(%rsp)
	movq	%r11, %r10
	testq	%rdx, %rdx
	setle	%r9b
	cmpq	%r8, 408(%rsp)
	movq	336(%rsp), %r8
	setbe	%dl
	movl	%r9d, %r11d
	orl	%edx, %r11d
	leaq	16(%r8,%r8), %rdx
	movq	360(%rsp), %r8
	testq	%rdx, %rdx
	movq	408(%rsp), %rdx
	setle	%r9b
	cmpq	%r10, %rdx
	movl	%r11d, %r10d
	setbe	%dl
	orl	%edx, %r9d
	movq	$-4, %rdx
	subq	(%rsp), %rdx
	cmpq	$8, %rdx
	seta	%dl
	subq	$12, %r8
	andl	%r10d, %edx
	andb	392(%rsp), %dl
	andl	%edx, %r9d
	movq	144(%rsp), %rdx
	movl	%r9d, %r11d
	movq	112(%rsp), %r9
	subq	%r8, %rdx
	cmpq	$8, %rdx
	seta	%dl
	andl	%edx, %r11d
	movl	$12, %edx
	subq	360(%rsp), %rdx
	movl	%r11d, %r8d
	movq	352(%rsp), %r11
	cmpq	$8, %rdx
	seta	%dl
	addq	$12, %r11
	andl	%r8d, %edx
	cmpq	$8, %r11
	seta	%r8b
	andl	%r8d, %edx
	movb	%dl, 2141(%rsp)
	movq	%rcx, %rdx
	movq	96(%rsp), %rcx
	addq	%rcx, %rdx
	addq	%rcx, %rdi
	movq	%rdx, 1288(%rsp)
	movq	%rsi, %rdx
	movq	448(%rsp), %rsi
	addq	%rcx, %rdx
	movq	%rdi, 2016(%rsp)
	movq	%rdx, 2112(%rsp)
	movzbl	1096(%rsp), %edx
	andl	%r10d, %edx
	movb	%dl, 2142(%rsp)
	movl	2224(%rsp), %edx
	addl	$7, %edx
	movl	%edx, 1280(%rsp)
	movl	2224(%rsp), %edx
	addl	$8, %edx
	movl	%edx, 1284(%rsp)
	movl	2224(%rsp), %edx
	addl	$9, %edx
	movl	%edx, 1992(%rsp)
	movq	24(%rsp), %rdx
	addq	%rsi, %rdx
	cmpq	%rdx, 2232(%rsp)
	setnb	%dl
	cmpq	%r9, %rsi
	setnb	%cl
	orl	%ecx, %edx
	movq	400(%rsp), %rcx
	andb	8(%rsp), %dl
	movb	%dl, 2143(%rsp)
	movq	2232(%rsp), %rdx
	salq	$6, %rcx
	addq	%rcx, %rdx
	movq	%rsi, %rcx
	addq	128(%rsp), %rsi
	movq	%rdx, 1712(%rsp)
	movq	%rsi, 1096(%rsp)
	addq	2232(%rsp), %rbx
	movq	%rbx, 1128(%rsp)
	movq	2232(%rsp), %rbx
	movq	176(%rsp), %rsi
	addq	2232(%rsp), %rax
	addq	%rbp, %rbx
	addq	2232(%rsp), %r14
	movq	192(%rsp), %r8
	movq	%rax, 1104(%rsp)
	movq	%rbx, 1168(%rsp)
	addq	%rcx, %rsi
	movq	%rcx, %rax
	movq	2232(%rsp), %rbx
	movq	%rsi, 1296(%rsp)
	movq	168(%rsp), %rsi
	addq	%r12, %rbx
	addq	2232(%rsp), %r8
	movq	%r14, 1120(%rsp)
	movq	%rbx, 1136(%rsp)
	movq	2232(%rsp), %rbx
	addq	%rcx, %rsi
	movq	%rsi, 1160(%rsp)
	movq	160(%rsp), %rsi
	addq	%r13, %rbx
	movq	%r8, 1960(%rsp)
	movq	%rbx, 1152(%rsp)
	movq	272(%rsp), %rbx
	addq	%rcx, %rsi
	movq	%rsi, 1176(%rsp)
	movq	280(%rsp), %rsi
	addq	%rcx, %rbx
	movq	%rbx, 1112(%rsp)
	movq	264(%rsp), %rbx
	addq	%rcx, %rsi
	movq	%rsi, 1144(%rsp)
	addq	%rcx, %rbx
	movq	%rbx, 1984(%rsp)
	movq	2232(%rsp), %rbx
	addq	%r15, %rbx
	movq	%rbx, 1976(%rsp)
	movq	256(%rsp), %rbx
	addq	%rcx, %rbx
	movq	%rbx, 1968(%rsp)
	movq	248(%rsp), %rbx
	addq	%rcx, %rbx
	movq	%rbx, 1184(%rsp)
	movq	240(%rsp), %rbx
	movq	152(%rsp), %r8
	addq	2232(%rsp), %r8
	addq	%rcx, %rbx
	movq	%r8, 1192(%rsp)
	movq	80(%rsp), %r8
	movq	%rbx, 1200(%rsp)
	movq	232(%rsp), %rbx
	addq	2232(%rsp), %r8
	movq	296(%rsp), %r9
	addq	%rcx, %rbx
	movq	%r8, 1208(%rsp)
	movq	64(%rsp), %r8
	movq	%rbx, 1216(%rsp)
	movq	224(%rsp), %rbx
	addq	2232(%rsp), %r8
	addq	%rcx, %rbx
	movq	%r8, 1224(%rsp)
	movq	56(%rsp), %r8
	movq	%rbx, 1232(%rsp)
	movq	216(%rsp), %rbx
	addq	2232(%rsp), %r8
	addq	%rcx, %rbx
	movq	%r8, 1240(%rsp)
	movq	48(%rsp), %r8
	movq	%rbx, 1248(%rsp)
	movq	208(%rsp), %rbx
	addq	2232(%rsp), %r8
	movq	%r8, 1256(%rsp)
	addq	%rcx, %rbx
	movq	16(%rsp), %r8
	addq	2232(%rsp), %r8
	addq	200(%rsp), %rax
	movq	%rbx, 1264(%rsp)
	addq	2232(%rsp), %r9
	movq	%rax, 2128(%rsp)
	movq	%r8, 1272(%rsp)
	movq	%r9, 2120(%rsp)
	movl	2224(%rsp), %eax
	movdqa	.LC27(%rip), %xmm7
	movq	%rax, 296(%rsp)
	psrlq	$32, %xmm7
	movaps	%xmm7, 2144(%rsp)
	.p2align 4,,10
	.p2align 3
.L869:
	movq	328(%rsp), %rbx
	movq	32(%rsp), %r15
	movl	2224(%rsp), %edx
	movq	%rbx, %rdi
	movq	%r15, %rsi
	call	poly_small_mkgauss
	movq	40(%rsp), %r14
	movl	2224(%rsp), %edx
	movq	%rbx, %rdi
	movq	%r14, %rsi
	call	poly_small_mkgauss
	movq	24(%rsp), %r9
	movq	%r15, %rdi
	movq	%r14, %r8
	movq	296(%rsp), %rbx
	leaq	falcon_inner_max_fg_bits(%rip), %rax
	movzbl	(%rax,%rbx), %ecx
	movl	$1, %eax
	subl	$1, %ecx
	sall	%cl, %eax
	movl	%eax, %ecx
	xorl	%eax, %eax
	movl	%ecx, %ebx
	negl	%ebx
	movl	%ebx, %esi
	.p2align 4,,10
	.p2align 3
.L871:
	movsbl	(%rdi,%rax), %edx
	cmpl	%ecx, %edx
	jge	.L869
	cmpl	%esi, %edx
	jle	.L869
	movsbl	(%r8,%rax), %edx
	cmpl	%edx, %esi
	jge	.L869
	cmpl	%ecx, %edx
	jge	.L869
	addq	$1, %rax
	cmpq	%rax, %r9
	jne	.L871
	testl	%ecx, %ecx
	js	.L869
	movq	32(%rsp), %rdx
	movq	288(%rsp), %rsi
	xorl	%edi, %edi
	xorl	%ecx, %ecx
	movq	%rdx, %r9
	.p2align 4,,10
	.p2align 3
.L872:
	movsbl	(%rdx), %eax
	addq	$1, %rdx
	imull	%eax, %eax
	addl	%eax, %ecx
	orl	%ecx, %edi
	cmpq	%rsi, %rdx
	jne	.L872
	movq	40(%rsp), %rdx
	sarl	$31, %edi
	movq	344(%rsp), %r10
	xorl	%esi, %esi
	orl	%ecx, %edi
	xorl	%ecx, %ecx
	movq	%rdx, %r8
	.p2align 4,,10
	.p2align 3
.L873:
	movsbl	(%rdx), %eax
	addq	$1, %rdx
	imull	%eax, %eax
	addl	%eax, %ecx
	orl	%ecx, %esi
	cmpq	%r10, %rdx
	jne	.L873
	sarl	$31, %esi
	orl	%ecx, %esi
	movl	%esi, %eax
	addl	%edi, %esi
	orl	%edi, %eax
	sarl	$31, %eax
	orl	%esi, %eax
	cmpl	$16822, %eax
	ja	.L869
	cmpb	$0, 1082(%rsp)
	je	.L1011
	movq	2232(%rsp), %rax
	movq	816(%rsp), %rdx
	pxor	%xmm5, %xmm5
	pxor	%xmm4, %xmm4
	.p2align 4,,10
	.p2align 3
.L875:
	movdqa	%xmm5, %xmm2
	movdqa	%xmm4, %xmm6
	subq	$-128, %rax
	addq	$16, %r9
	movdqu	-16(%r9), %xmm1
	pcmpgtb	%xmm1, %xmm2
	movdqa	%xmm1, %xmm0
	punpcklbw	%xmm2, %xmm0
	punpckhbw	%xmm2, %xmm1
	movdqa	%xmm4, %xmm2
	pcmpgtw	%xmm0, %xmm2
	pcmpgtw	%xmm1, %xmm6
	movdqa	%xmm0, %xmm3
	punpcklwd	%xmm2, %xmm3
	punpckhwd	%xmm2, %xmm0
	movdqa	%xmm1, %xmm2
	punpcklwd	%xmm6, %xmm2
	punpckhwd	%xmm6, %xmm1
	cvtdq2pd	%xmm3, %xmm6
	movups	%xmm6, -128(%rax)
	pshufd	$238, %xmm3, %xmm3
	cvtdq2pd	%xmm3, %xmm3
	movups	%xmm3, -112(%rax)
	cvtdq2pd	%xmm0, %xmm3
	pshufd	$238, %xmm0, %xmm0
	cvtdq2pd	%xmm0, %xmm0
	movups	%xmm0, -80(%rax)
	cvtdq2pd	%xmm2, %xmm0
	pshufd	$238, %xmm2, %xmm2
	movups	%xmm0, -64(%rax)
	cvtdq2pd	%xmm1, %xmm0
	pshufd	$238, %xmm1, %xmm1
	cvtdq2pd	%xmm2, %xmm2
	cvtdq2pd	%xmm1, %xmm1
	movups	%xmm3, -96(%rax)
	movups	%xmm2, -48(%rax)
	movups	%xmm0, -32(%rax)
	movups	%xmm1, -16(%rax)
	cmpq	%rdx, %rax
	jne	.L875
	movq	24(%rsp), %rbx
	movq	128(%rsp), %rax
	cmpq	%rax, %rbx
	je	.L877
	movq	488(%rsp), %rax
	pxor	%xmm0, %xmm0
	movsbl	(%rax), %eax
	cvtsi2sdl	%eax, %xmm0
	movq	912(%rsp), %rax
	movsd	%xmm0, (%rax)
	movq	176(%rsp), %rax
	cmpq	%rax, %rbx
	jbe	.L877
	movq	480(%rsp), %rax
	pxor	%xmm0, %xmm0
	movsbl	(%rax), %eax
	cvtsi2sdl	%eax, %xmm0
	movq	904(%rsp), %rax
	movsd	%xmm0, (%rax)
	movq	168(%rsp), %rax
	cmpq	%rax, %rbx
	jbe	.L877
	movq	472(%rsp), %rax
	pxor	%xmm0, %xmm0
	movsbl	(%rax), %eax
	cvtsi2sdl	%eax, %xmm0
	movq	896(%rsp), %rax
	movsd	%xmm0, (%rax)
	movq	160(%rsp), %rax
	cmpq	%rax, %rbx
	jbe	.L877
	movq	648(%rsp), %rax
	pxor	%xmm0, %xmm0
	movsbl	(%rax), %eax
	cvtsi2sdl	%eax, %xmm0
	movq	1384(%rsp), %rax
	movsd	%xmm0, (%rax)
	movq	280(%rsp), %rax
	cmpq	%rax, %rbx
	jbe	.L877
	movq	640(%rsp), %rax
	pxor	%xmm0, %xmm0
	movsbl	(%rax), %eax
	cvtsi2sdl	%eax, %xmm0
	movq	1376(%rsp), %rax
	movsd	%xmm0, (%rax)
	movq	272(%rsp), %rax
	cmpq	%rax, %rbx
	jbe	.L877
	movq	632(%rsp), %rax
	pxor	%xmm0, %xmm0
	movsbl	(%rax), %eax
	cvtsi2sdl	%eax, %xmm0
	movq	1368(%rsp), %rax
	movsd	%xmm0, (%rax)
	movq	264(%rsp), %rax
	cmpq	%rax, %rbx
	jbe	.L877
	movq	624(%rsp), %rax
	pxor	%xmm0, %xmm0
	movsbl	(%rax), %eax
	cvtsi2sdl	%eax, %xmm0
	movq	1360(%rsp), %rax
	movsd	%xmm0, (%rax)
	movq	256(%rsp), %rax
	cmpq	%rax, %rbx
	jbe	.L877
	movq	616(%rsp), %rax
	pxor	%xmm0, %xmm0
	movsbl	(%rax), %eax
	cvtsi2sdl	%eax, %xmm0
	movq	1352(%rsp), %rax
	movsd	%xmm0, (%rax)
	movq	248(%rsp), %rax
	cmpq	%rax, %rbx
	jbe	.L877
	movq	608(%rsp), %rax
	pxor	%xmm0, %xmm0
	movsbl	(%rax), %eax
	cvtsi2sdl	%eax, %xmm0
	movq	1344(%rsp), %rax
	movsd	%xmm0, (%rax)
	movq	240(%rsp), %rax
	cmpq	%rax, %rbx
	jbe	.L877
	movq	600(%rsp), %rax
	pxor	%xmm0, %xmm0
	movsbl	(%rax), %eax
	cvtsi2sdl	%eax, %xmm0
	movq	1336(%rsp), %rax
	movsd	%xmm0, (%rax)
	movq	232(%rsp), %rax
	cmpq	%rax, %rbx
	jbe	.L877
	movq	592(%rsp), %rax
	pxor	%xmm0, %xmm0
	movsbl	(%rax), %eax
	cvtsi2sdl	%eax, %xmm0
	movq	1328(%rsp), %rax
	movsd	%xmm0, (%rax)
	movq	224(%rsp), %rax
	cmpq	%rax, %rbx
	jbe	.L877
	movq	584(%rsp), %rax
	pxor	%xmm0, %xmm0
	movsbl	(%rax), %eax
	cvtsi2sdl	%eax, %xmm0
	movq	1320(%rsp), %rax
	movsd	%xmm0, (%rax)
	movq	216(%rsp), %rax
	cmpq	%rax, %rbx
	jbe	.L877
	movq	576(%rsp), %rax
	pxor	%xmm0, %xmm0
	movsbl	(%rax), %eax
	cvtsi2sdl	%eax, %xmm0
	movq	1312(%rsp), %rax
	movsd	%xmm0, (%rax)
	movq	208(%rsp), %rax
	cmpq	%rax, %rbx
	jbe	.L877
	movq	568(%rsp), %rax
	pxor	%xmm0, %xmm0
	movsbl	(%rax), %eax
	cvtsi2sdl	%eax, %xmm0
	movq	1304(%rsp), %rax
	movsd	%xmm0, (%rax)
	movq	200(%rsp), %rax
	cmpq	%rax, %rbx
	jbe	.L877
	movq	800(%rsp), %rax
	pxor	%xmm0, %xmm0
	movsbl	(%rax), %eax
	cvtsi2sdl	%eax, %xmm0
	movq	1936(%rsp), %rax
	movsd	%xmm0, (%rax)
.L877:
	cmpb	$0, 1083(%rsp)
	je	.L1012
	movq	136(%rsp), %rax
	movq	744(%rsp), %rdx
	pxor	%xmm5, %xmm5
	pxor	%xmm4, %xmm4
	.p2align 4,,10
	.p2align 3
.L879:
	movdqa	%xmm5, %xmm2
	movdqa	%xmm4, %xmm6
	subq	$-128, %rax
	addq	$16, %r8
	movdqu	-16(%r8), %xmm1
	pcmpgtb	%xmm1, %xmm2
	movdqa	%xmm1, %xmm0
	punpcklbw	%xmm2, %xmm0
	punpckhbw	%xmm2, %xmm1
	movdqa	%xmm4, %xmm2
	pcmpgtw	%xmm0, %xmm2
	pcmpgtw	%xmm1, %xmm6
	movdqa	%xmm0, %xmm3
	punpcklwd	%xmm2, %xmm3
	punpckhwd	%xmm2, %xmm0
	movdqa	%xmm1, %xmm2
	punpcklwd	%xmm6, %xmm2
	punpckhwd	%xmm6, %xmm1
	cvtdq2pd	%xmm3, %xmm6
	movups	%xmm6, -128(%rax)
	pshufd	$238, %xmm3, %xmm3
	cvtdq2pd	%xmm3, %xmm3
	movups	%xmm3, -112(%rax)
	cvtdq2pd	%xmm0, %xmm3
	pshufd	$238, %xmm0, %xmm0
	cvtdq2pd	%xmm0, %xmm0
	movups	%xmm0, -80(%rax)
	cvtdq2pd	%xmm2, %xmm0
	pshufd	$238, %xmm2, %xmm2
	movups	%xmm0, -64(%rax)
	cvtdq2pd	%xmm1, %xmm0
	pshufd	$238, %xmm1, %xmm1
	cvtdq2pd	%xmm2, %xmm2
	cvtdq2pd	%xmm1, %xmm1
	movups	%xmm3, -96(%rax)
	movups	%xmm2, -48(%rax)
	movups	%xmm0, -32(%rax)
	movups	%xmm1, -16(%rax)
	cmpq	%rax, %rdx
	jne	.L879
	movq	24(%rsp), %rbx
	movq	128(%rsp), %rax
	cmpq	%rax, %rbx
	je	.L881
	movq	512(%rsp), %rax
	pxor	%xmm0, %xmm0
	movsbl	(%rax), %eax
	cvtsi2sdl	%eax, %xmm0
	movq	936(%rsp), %rax
	movsd	%xmm0, (%rax)
	movq	176(%rsp), %rax
	cmpq	%rax, %rbx
	jbe	.L881
	movq	504(%rsp), %rax
	pxor	%xmm0, %xmm0
	movsbl	(%rax), %eax
	cvtsi2sdl	%eax, %xmm0
	movq	928(%rsp), %rax
	movsd	%xmm0, (%rax)
	movq	168(%rsp), %rax
	cmpq	%rax, %rbx
	jbe	.L881
	movq	496(%rsp), %rax
	pxor	%xmm0, %xmm0
	movsbl	(%rax), %eax
	cvtsi2sdl	%eax, %xmm0
	movq	920(%rsp), %rax
	movsd	%xmm0, (%rax)
	movq	160(%rsp), %rax
	cmpq	%rax, %rbx
	jbe	.L881
	movq	736(%rsp), %rax
	pxor	%xmm0, %xmm0
	movsbl	(%rax), %eax
	cvtsi2sdl	%eax, %xmm0
	movq	1472(%rsp), %rax
	movsd	%xmm0, (%rax)
	movq	280(%rsp), %rax
	cmpq	%rax, %rbx
	jbe	.L881
	movq	728(%rsp), %rax
	pxor	%xmm0, %xmm0
	movsbl	(%rax), %eax
	cvtsi2sdl	%eax, %xmm0
	movq	1464(%rsp), %rax
	movsd	%xmm0, (%rax)
	movq	272(%rsp), %rax
	cmpq	%rax, %rbx
	jbe	.L881
	movq	720(%rsp), %rax
	pxor	%xmm0, %xmm0
	movsbl	(%rax), %eax
	cvtsi2sdl	%eax, %xmm0
	movq	1456(%rsp), %rax
	movsd	%xmm0, (%rax)
	movq	264(%rsp), %rax
	cmpq	%rax, %rbx
	jbe	.L881
	movq	712(%rsp), %rax
	pxor	%xmm0, %xmm0
	movsbl	(%rax), %eax
	cvtsi2sdl	%eax, %xmm0
	movq	1448(%rsp), %rax
	movsd	%xmm0, (%rax)
	movq	256(%rsp), %rax
	cmpq	%rax, %rbx
	jbe	.L881
	movq	704(%rsp), %rax
	pxor	%xmm0, %xmm0
	movsbl	(%rax), %eax
	cvtsi2sdl	%eax, %xmm0
	movq	1440(%rsp), %rax
	movsd	%xmm0, (%rax)
	movq	248(%rsp), %rax
	cmpq	%rax, %rbx
	jbe	.L881
	movq	696(%rsp), %rax
	pxor	%xmm0, %xmm0
	movsbl	(%rax), %eax
	cvtsi2sdl	%eax, %xmm0
	movq	1432(%rsp), %rax
	movsd	%xmm0, (%rax)
	movq	240(%rsp), %rax
	cmpq	%rax, %rbx
	jbe	.L881
	movq	688(%rsp), %rax
	pxor	%xmm0, %xmm0
	movsbl	(%rax), %eax
	cvtsi2sdl	%eax, %xmm0
	movq	1424(%rsp), %rax
	movsd	%xmm0, (%rax)
	movq	232(%rsp), %rax
	cmpq	%rax, %rbx
	jbe	.L881
	movq	680(%rsp), %rax
	pxor	%xmm0, %xmm0
	movsbl	(%rax), %eax
	cvtsi2sdl	%eax, %xmm0
	movq	1416(%rsp), %rax
	movsd	%xmm0, (%rax)
	movq	224(%rsp), %rax
	cmpq	%rax, %rbx
	jbe	.L881
	movq	672(%rsp), %rax
	pxor	%xmm0, %xmm0
	movsbl	(%rax), %eax
	cvtsi2sdl	%eax, %xmm0
	movq	1408(%rsp), %rax
	movsd	%xmm0, (%rax)
	movq	216(%rsp), %rax
	cmpq	%rax, %rbx
	jbe	.L881
	movq	664(%rsp), %rax
	pxor	%xmm0, %xmm0
	movsbl	(%rax), %eax
	cvtsi2sdl	%eax, %xmm0
	movq	1400(%rsp), %rax
	movsd	%xmm0, (%rax)
	movq	208(%rsp), %rax
	cmpq	%rax, %rbx
	jbe	.L881
	movq	656(%rsp), %rax
	pxor	%xmm0, %xmm0
	movsbl	(%rax), %eax
	cvtsi2sdl	%eax, %xmm0
	movq	1392(%rsp), %rax
	movsd	%xmm0, (%rax)
	movq	200(%rsp), %rax
	cmpq	%rax, %rbx
	jbe	.L881
	movq	808(%rsp), %rax
	pxor	%xmm0, %xmm0
	movsbl	(%rax), %eax
	cvtsi2sdl	%eax, %xmm0
	movq	1944(%rsp), %rax
	movsd	%xmm0, (%rax)
.L881:
	movl	2224(%rsp), %esi
	movq	2232(%rsp), %rdi
	call	falcon_inner_FFT@PLT
	movq	136(%rsp), %rbx
	movl	2224(%rsp), %esi
	movq	%rbx, %rdi
	call	falcon_inner_FFT@PLT
	movq	544(%rsp), %r14
	movl	2224(%rsp), %ecx
	movq	%rbx, %rdx
	movq	2232(%rsp), %rsi
	movq	%r14, %rdi
	call	falcon_inner_poly_invnorm2_fft@PLT
	movl	2224(%rsp), %esi
	movq	2232(%rsp), %rdi
	call	falcon_inner_poly_adj_fft@PLT
	movl	2224(%rsp), %esi
	movq	%rbx, %rdi
	call	falcon_inner_poly_adj_fft@PLT
	movl	2224(%rsp), %esi
	movsd	fpr_q(%rip), %xmm0
	movq	2232(%rsp), %rdi
	call	falcon_inner_poly_mulconst@PLT
	movsd	fpr_q(%rip), %xmm0
	movl	2224(%rsp), %esi
	movq	%rbx, %rdi
	call	falcon_inner_poly_mulconst@PLT
	movl	2224(%rsp), %edx
	movq	2232(%rsp), %rdi
	movq	%r14, %rsi
	call	falcon_inner_poly_mul_autoadj_fft@PLT
	movl	2224(%rsp), %edx
	movq	%r14, %rsi
	movq	%rbx, %rdi
	call	falcon_inner_poly_mul_autoadj_fft@PLT
	movl	2224(%rsp), %esi
	movq	2232(%rsp), %rdi
	call	falcon_inner_iFFT@PLT
	movl	2224(%rsp), %esi
	movq	%rbx, %rdi
	call	falcon_inner_iFFT@PLT
	movq	24(%rsp), %rdx
	pxor	%xmm1, %xmm1
	xorl	%eax, %eax
	movq	2232(%rsp), %rsi
	movq	%rbx, %rcx
	.p2align 4,,10
	.p2align 3
.L882:
	movsd	(%rsi,%rax,8), %xmm2
	movsd	(%rcx,%rax,8), %xmm0
	addq	$1, %rax
	mulsd	%xmm2, %xmm2
	mulsd	%xmm0, %xmm0
	addsd	%xmm2, %xmm1
	addsd	%xmm0, %xmm1
	cmpq	%rax, %rdx
	jne	.L882
	movsd	.LC23(%rip), %xmm7
	comisd	%xmm1, %xmm7
	jbe	.L869
	movq	40(%rsp), %rbp
	movq	32(%rsp), %r14
	movq	880(%rsp), %r8
	movl	2224(%rsp), %ecx
	movq	872(%rsp), %rdi
	movq	%rbp, %rdx
	movq	%r14, %rsi
	call	falcon_inner_compute_public@PLT
	testl	%eax, %eax
	je	.L869
	leaq	falcon_inner_max_FG_bits(%rip), %rbx
	xorl	%r9d, %r9d
	movq	%rbp, %rdx
	movq	%r14, %rsi
	movq	296(%rsp), %rax
	movl	2224(%rsp), %r8d
	movzbl	(%rbx,%rax), %ebx
	movb	%bl, 1072(%rsp)
	leaq	MAX_BL_SMALL(%rip), %rbx
	movq	(%rbx,%rax,8), %r13
	movq	2232(%rsp), %rax
	leaq	0(,%r13,4), %rbx
	movq	%r13, 16(%rsp)
	addq	%rbx, %rax
	movq	%rbx, 80(%rsp)
	movq	%rax, 192(%rsp)
	addq	%rbx, %rax
	movq	%rax, %rcx
	movq	%rax, %rdi
	movq	%rax, 64(%rsp)
	addq	%rbx, %rcx
	movq	%rcx, %r15
	movq	%rcx, 152(%rsp)
	movl	%r8d, %ecx
	call	make_fg
	addq	%rbx, %r15
	movl	$2147473409, (%r15)
	cmpq	$1, %r13
	jbe	.L884
	leaq	12+PRIMES(%rip), %rax
	leaq	4(%r15), %r14
	movl	$1, %r11d
	movq	%rax, 48(%rsp)
	.p2align 4,,10
	.p2align 3
.L889:
	movq	48(%rsp), %rbx
	movl	$2, %eax
	movl	$2, %edx
	leaq	0(,%r11,4), %r12
	movl	$2, %r13d
	movl	(%rbx), %r10d
	subl	%r10d, %eax
	movl	%r10d, %ecx
	movl	%r10d, %r9d
	movl	%r10d, %edi
	imull	%eax, %ecx
	movq	%r10, %r8
	subl	%ecx, %edx
	movl	%r10d, %ecx
	imull	%edx, %eax
	movl	$2, %edx
	imull	%eax, %ecx
	subl	%ecx, %edx
	movl	%r10d, %ecx
	imull	%edx, %eax
	movl	$2, %edx
	imull	%eax, %ecx
	subl	%ecx, %edx
	imull	%edx, %eax
	imull	%eax, %r9d
	subl	$2, %r9d
	imull	%eax, %r9d
	andl	$2147483647, %r9d
	movl	%r9d, %esi
	call	modp_R2
	movl	8(%rbx), %ebx
	movq	%r14, 56(%rsp)
	movq	64(%rsp), %rdi
	movq	80(%rsp), %r14
	movq	%rbx, 8(%rsp)
	movl	%eax, %ebx
	leaq	-1(%r11), %rax
	movq	%rax, (%rsp)
	.p2align 4,,10
	.p2align 3
.L887:
	movl	(%rdi,%r12), %ebp
	movq	(%rsp), %rsi
	xorl	%eax, %eax
	.p2align 4,,10
	.p2align 3
.L885:
	imulq	%rbx, %rax
	movq	%rax, %rdx
	imulq	%r9, %rdx
	andl	$2147483647, %edx
	imulq	%r10, %rdx
	addq	%rdx, %rax
	movl	(%rdi,%rsi,4), %edx
	shrq	$31, %rax
	subl	%r8d, %eax
	subl	%r8d, %edx
	movl	%eax, %ecx
	subl	%r8d, %eax
	sarl	$31, %ecx
	andl	%r8d, %ecx
	addl	%ecx, %eax
	addl	%edx, %eax
	sarl	$31, %edx
	andl	%r8d, %edx
	addl	%edx, %eax
	cltd
	andl	%r8d, %edx
	addl	%edx, %eax
	subq	$1, %rsi
	jnb	.L885
	subl	%eax, %ebp
	movl	%ebp, %eax
	sarl	$31, %eax
	andl	%r8d, %eax
	leal	0(%rbp,%rax), %edx
	xorl	%ebp, %ebp
	imulq	8(%rsp), %rdx
	movq	%rdx, %rax
	imulq	%r9, %rax
	andl	$2147483647, %eax
	imulq	%r10, %rax
	addq	%rdx, %rax
	shrq	$31, %rax
	subl	%r8d, %eax
	cltd
	andl	%r8d, %edx
	leal	(%rax,%rdx), %ecx
	xorl	%edx, %edx
	.p2align 4,,10
	.p2align 3
.L886:
	movl	(%r15,%rdx,4), %esi
	movl	(%rdi,%rdx,4), %eax
	imulq	%rcx, %rsi
	addq	%rbp, %rax
	addq	%rsi, %rax
	movl	%eax, %esi
	shrq	$31, %rax
	andl	$2147483647, %esi
	movl	%eax, %ebp
	movl	%esi, (%rdi,%rdx,4)
	addq	$1, %rdx
	cmpq	%r11, %rdx
	jne	.L886
	movl	%eax, (%rdi,%r12)
	addq	%r14, %rdi
	cmpq	$1, %r13
	je	.L1156
	movl	$1, %r13d
	jmp	.L887
	.p2align 4,,10
	.p2align 3
.L1156:
	movq	56(%rsp), %r14
	movq	%r15, %rdx
	xorl	%ecx, %ecx
	.p2align 4,,10
	.p2align 3
.L888:
	movl	(%rdx), %eax
	addq	$4, %rdx
	imulq	%r10, %rax
	addq	%rcx, %rax
	movl	%eax, %ecx
	shrq	$31, %rax
	andl	$2147483647, %ecx
	movl	%ecx, -4(%rdx)
	movl	%eax, %ecx
	cmpq	%r14, %rdx
	jne	.L888
	movl	%eax, (%r14)
	addq	$1, %r11
	addq	$4, %r14
	addq	$12, 48(%rsp)
	cmpq	%r11, 16(%rsp)
	jne	.L889
.L892:
	movq	80(%rsp), %r12
	movq	64(%rsp), %rax
	movq	152(%rsp), %rbx
	leaq	(%r15,%r12), %r14
	movq	%r12, %rdx
	movq	%rax, %rsi
	movl	(%rax), %ebp
	movq	%r14, %r13
	movq	%r14, 56(%rsp)
	movl	(%rbx), %ebx
	addq	%r12, %r13
	movq	%r13, %rdi
	movq	%r13, (%rsp)
	addq	%r12, %r13
	movq	%r13, 400(%rsp)
	call	memcpy@PLT
	movq	152(%rsp), %rsi
	movq	%r13, %rdi
	movq	%r12, %rdx
	call	memcpy@PLT
	movq	192(%rsp), %rdi
	movq	16(%rsp), %r13
	xorl	%esi, %esi
	movl	$1, (%rdi)
	leaq	-1(%r13), %rcx
	addq	$4, %rdi
	leaq	0(,%rcx,4), %rdx
	movq	%rcx, 48(%rsp)
	call	memset@PLT
	movq	2232(%rsp), %rdi
	movq	%r12, %rdx
	xorl	%esi, %esi
	call	memset@PLT
	movq	152(%rsp), %rsi
	movq	%r12, %rdx
	movq	%r15, %rdi
	call	memcpy@PLT
	movq	64(%rsp), %rsi
	movq	%r14, %rdi
	movq	%r12, %rdx
	call	memcpy@PLT
	imull	$62, %r13d, %eax
	subl	$1, (%r14)
	leal	30(%rax), %edi
	movl	%edi, 8(%rsp)
	cmpl	$-30, %eax
	jnb	.L891
	movl	$2, %ecx
